GAS LISTING /tmp/cciXq2vq.s 			page 1


   1              		.file	"pcb.cpp"
   2              		.option pic
   3              		.option norelax
   4              		.text
   5              	.Ltext0:
   6              		.align	2
   7              		.globl	_ZN3PCB13threadWrapperEv
   9              	_ZN3PCB13threadWrapperEv:
  10              	.LFB39:
  11              		.file 1 "src/pcb.cpp"
   1:src/pcb.cpp   **** #include "../h/pcb.hpp"
   2:src/pcb.cpp   **** #include "../h/riscv.hpp"
   3:src/pcb.cpp   **** 
   4:src/pcb.cpp   **** PCB *PCB::running = nullptr;
   5:src/pcb.cpp   **** uint64 PCB::timeSliceCounter = 0;
   6:src/pcb.cpp   **** 
   7:src/pcb.cpp   **** PCB *PCB::createThread(PCB::Body body, void *arg, uint64 *stek) {
   8:src/pcb.cpp   **** 
   9:src/pcb.cpp   ****     return new PCB(body, arg, stek);
  10:src/pcb.cpp   **** }
  11:src/pcb.cpp   **** 
  12:src/pcb.cpp   **** void PCB::dispatch() {
  13:src/pcb.cpp   ****     PCB *old = running;
  14:src/pcb.cpp   ****     if (!old->isFinished() && !old->isBlocked()) { Scheduler::put(old); }
  15:src/pcb.cpp   **** 
  16:src/pcb.cpp   ****     running = Scheduler::get();
  17:src/pcb.cpp   **** 
  18:src/pcb.cpp   ****     PCB::contextSwitch(&old->context, &running->context);
  19:src/pcb.cpp   **** 
  20:src/pcb.cpp   **** }
  21:src/pcb.cpp   **** 
  22:src/pcb.cpp   **** void PCB::threadWrapper() {
  12              		.loc 1 22 27
  13              		.cfi_startproc
  14 0000 130101FE 		addi	sp,sp,-32
  15              		.cfi_def_cfa_offset 32
  16 0004 233C1100 		sd	ra,24(sp)
  17 0008 23388100 		sd	s0,16(sp)
  18 000c 23349100 		sd	s1,8(sp)
  19              		.cfi_offset 1, -8
  20              		.cfi_offset 8, -16
  21              		.cfi_offset 9, -24
  22 0010 13040102 		addi	s0,sp,32
  23              		.cfi_def_cfa 8, 0
  23:src/pcb.cpp   ****     Riscv::popSppSpie();
  24              		.loc 1 23 5
  25              		.loc 1 23 22 is_stmt 0
  26 0014 97000000 		call	_ZN5Riscv10popSppSpieEv@plt
  26      E7800000 
  27              	.LVL0:
  24:src/pcb.cpp   **** 
  25:src/pcb.cpp   ****     running->body(running->getArg());
  28              		.loc 1 25 5 is_stmt 1
  29              		.loc 1 25 14 is_stmt 0
  30 001c 97040000 		lla	s1,.LANCHOR0
  30      93840400 
  31 0024 83B70400 		ld	a5,0(s1)
GAS LISTING /tmp/cciXq2vq.s 			page 2


  32 0028 03B70700 		ld	a4,0(a5)
  33              	.LVL1:
  34              	.LBB10:
  35              	.LBB11:
  36              		.file 2 "src/../h/pcb.hpp"
   1:src/../h/pcb.hpp **** #ifndef OS1_PROJEKAT_PCB_HPP
   2:src/../h/pcb.hpp **** #define OS1_PROJEKAT_PCB_HPP
   3:src/../h/pcb.hpp **** 
   4:src/../h/pcb.hpp **** #include "../lib/hw.h"
   5:src/../h/pcb.hpp **** #include "scheduler.hpp"
   6:src/../h/pcb.hpp **** #include "../lib/mem.h"
   7:src/../h/pcb.hpp **** 
   8:src/../h/pcb.hpp **** class PCB {
   9:src/../h/pcb.hpp **** public:
  10:src/../h/pcb.hpp ****     ~PCB() { __mem_free(stack); }
  11:src/../h/pcb.hpp **** 
  12:src/../h/pcb.hpp ****     bool isFinished() const { return finished; }
  13:src/../h/pcb.hpp **** 
  14:src/../h/pcb.hpp ****     bool isBlocked() const { return blocked; }
  15:src/../h/pcb.hpp **** 
  16:src/../h/pcb.hpp ****     bool isDeblockFromSemClose() const { return semClose; }
  17:src/../h/pcb.hpp **** 
  18:src/../h/pcb.hpp ****     void *getArg() const { return arg; }
  37              		.loc 2 18 28 is_stmt 1
  38              	.LBE11:
  39              	.LBE10:
  40              		.loc 1 25 18 is_stmt 0
  41 002c 03B50703 		ld	a0,48(a5)
  42 0030 E7000700 		jalr	a4
  43              	.LVL2:
  26:src/pcb.cpp   **** 
  27:src/pcb.cpp   ****     running->setFinished(true);
  44              		.loc 1 27 5 is_stmt 1
  45              		.loc 1 27 25 is_stmt 0
  46 0034 83B70400 		ld	a5,0(s1)
  47              	.LVL3:
  48              	.LBB12:
  49              	.LBB13:
  19:src/../h/pcb.hpp **** 
  20:src/../h/pcb.hpp ****     void setFinished(bool value) { finished = value; }
  50              		.loc 2 20 36 is_stmt 1
  51              		.loc 2 20 45 is_stmt 0
  52 0038 13071000 		li	a4,1
  53 003c 2384E702 		sb	a4,40(a5)
  54              	.LVL4:
  55              	.LBE13:
  56              	.LBE12:
  28:src/pcb.cpp   **** 
  29:src/pcb.cpp   ****     uint64 number = 0x13;
  57              		.loc 1 29 5 is_stmt 1
  30:src/pcb.cpp   ****     __asm__ volatile ("mv a0, %[number]" : : [number] "r"(number));
  58              		.loc 1 30 5
  59              		.loc 1 30 67 is_stmt 0
  60 0040 93073001 		li	a5,19
  61              	#APP
  62              	# 30 "src/pcb.cpp" 1
  31              	
GAS LISTING /tmp/cciXq2vq.s 			page 3


  32:src/pcb.cpp   ****     __asm__ volatile("ecall");
  63              		mv a0, a5
  64              	# 0 "" 2
  65              		.loc 1 32 5 is_stmt 1
  66              		.loc 1 32 30 is_stmt 0
  67              	# 32 "src/pcb.cpp" 1
  33              	}
  68              		ecall
  69              	# 0 "" 2
  70              		.loc 1 33 1
  71              	#NO_APP
  72 004c 83308101 		ld	ra,24(sp)
  73              		.cfi_restore 1
  74 0050 03340101 		ld	s0,16(sp)
  75              		.cfi_restore 8
  76              		.cfi_def_cfa 2, 32
  77 0054 83348100 		ld	s1,8(sp)
  78              		.cfi_restore 9
  79 0058 13010102 		addi	sp,sp,32
  80              		.cfi_def_cfa_offset 0
  81 005c 67800000 		jr	ra
  82              		.cfi_endproc
  83              	.LFE39:
  85              		.align	2
  86              		.globl	_ZN3PCB8dispatchEv
  88              	_ZN3PCB8dispatchEv:
  89              	.LFB38:
  12:src/pcb.cpp   ****     PCB *old = running;
  90              		.loc 1 12 22 is_stmt 1
  91              		.cfi_startproc
  92 0060 130101FE 		addi	sp,sp,-32
  93              		.cfi_def_cfa_offset 32
  94 0064 233C1100 		sd	ra,24(sp)
  95 0068 23388100 		sd	s0,16(sp)
  96 006c 23349100 		sd	s1,8(sp)
  97              		.cfi_offset 1, -8
  98              		.cfi_offset 8, -16
  99              		.cfi_offset 9, -24
 100 0070 13040102 		addi	s0,sp,32
 101              		.cfi_def_cfa 8, 0
  13:src/pcb.cpp   ****     if (!old->isFinished() && !old->isBlocked()) { Scheduler::put(old); }
 102              		.loc 1 13 5
  13:src/pcb.cpp   ****     if (!old->isFinished() && !old->isBlocked()) { Scheduler::put(old); }
 103              		.loc 1 13 10 is_stmt 0
 104 0074 97040000 		ld	s1,.LANCHOR0
 104      83B40400 
 105              	.LVL5:
  14:src/pcb.cpp   **** 
 106              		.loc 1 14 5 is_stmt 1
 107              	.LBB14:
 108              	.LBB15:
  12:src/../h/pcb.hpp **** 
 109              		.loc 2 12 31
  12:src/../h/pcb.hpp **** 
 110              		.loc 2 12 38 is_stmt 0
 111 007c 83C78402 		lbu	a5,40(s1)
 112              	.LVL6:
GAS LISTING /tmp/cciXq2vq.s 			page 4


 113              	.LBE15:
 114              	.LBE14:
  14:src/pcb.cpp   **** 
 115              		.loc 1 14 28
 116 0080 63960700 		bnez	a5,.L4
 117              	.LVL7:
 118              	.LBB16:
 119              	.LBB17:
  14:src/../h/pcb.hpp **** 
 120              		.loc 2 14 30 is_stmt 1
  14:src/../h/pcb.hpp **** 
 121              		.loc 2 14 37 is_stmt 0
 122 0084 83C79402 		lbu	a5,41(s1)
 123              	.LVL8:
 124              	.LBE17:
 125              	.LBE16:
  14:src/pcb.cpp   **** 
 126              		.loc 1 14 28
 127 0088 638C0702 		beqz	a5,.L6
 128              	.L4:
  16:src/pcb.cpp   **** 
 129              		.loc 1 16 5 is_stmt 1
  16:src/pcb.cpp   **** 
 130              		.loc 1 16 29 is_stmt 0
 131 008c 97000000 		call	_ZN9Scheduler3getEv@plt
 131      E7800000 
 132              	.LVL9:
  16:src/pcb.cpp   **** 
 133              		.loc 1 16 13
 134 0094 97070000 		sd	a0,.LANCHOR0,a5
 134      23B0A700 
  18:src/pcb.cpp   **** 
 135              		.loc 1 18 5 is_stmt 1
  18:src/pcb.cpp   **** 
 136              		.loc 1 18 23 is_stmt 0
 137 009c 93050501 		addi	a1,a0,16
 138 00a0 13850401 		addi	a0,s1,16
 139 00a4 97000000 		call	_ZN3PCB13contextSwitchEPNS_7ContextES1_@plt
 139      E7800000 
 140              	.LVL10:
  20:src/pcb.cpp   **** 
 141              		.loc 1 20 1
 142 00ac 83308101 		ld	ra,24(sp)
 143              		.cfi_remember_state
 144              		.cfi_restore 1
 145 00b0 03340101 		ld	s0,16(sp)
 146              		.cfi_restore 8
 147              		.cfi_def_cfa 2, 32
 148 00b4 83348100 		ld	s1,8(sp)
 149              		.cfi_restore 9
 150              	.LVL11:
 151 00b8 13010102 		addi	sp,sp,32
 152              		.cfi_def_cfa_offset 0
 153 00bc 67800000 		jr	ra
 154              	.LVL12:
 155              	.L6:
 156              		.cfi_restore_state
GAS LISTING /tmp/cciXq2vq.s 			page 5


  14:src/pcb.cpp   **** 
 157              		.loc 1 14 52 is_stmt 1
  14:src/pcb.cpp   **** 
 158              		.loc 1 14 66 is_stmt 0
 159 00c0 13850400 		mv	a0,s1
 160 00c4 97000000 		call	_ZN9Scheduler3putEP3PCB@plt
 160      E7800000 
 161              	.LVL13:
 162 00cc 6FF01FFC 		j	.L4
 163              		.cfi_endproc
 164              	.LFE38:
 166              		.align	2
 167              		.globl	_ZN3PCBnwEm
 169              	_ZN3PCBnwEm:
 170              	.LFB40:
  34:src/pcb.cpp   **** 
  35:src/pcb.cpp   **** void *PCB::operator new(PCB::size_t n) {
 171              		.loc 1 35 40 is_stmt 1
 172              		.cfi_startproc
 173              	.LVL14:
 174 00d0 130101FF 		addi	sp,sp,-16
 175              		.cfi_def_cfa_offset 16
 176 00d4 23341100 		sd	ra,8(sp)
 177 00d8 23308100 		sd	s0,0(sp)
 178              		.cfi_offset 1, -8
 179              		.cfi_offset 8, -16
 180 00dc 13040101 		addi	s0,sp,16
 181              		.cfi_def_cfa 8, 0
  36:src/pcb.cpp   ****     return __mem_alloc(n);
 182              		.loc 1 36 5
 183              		.loc 1 36 23 is_stmt 0
 184 00e0 97000000 		call	__mem_alloc@plt
 184      E7800000 
 185              	.LVL15:
  37:src/pcb.cpp   **** }
 186              		.loc 1 37 1
 187 00e8 83308100 		ld	ra,8(sp)
 188              		.cfi_restore 1
 189 00ec 03340100 		ld	s0,0(sp)
 190              		.cfi_restore 8
 191              		.cfi_def_cfa 2, 16
 192 00f0 13010101 		addi	sp,sp,16
 193              		.cfi_def_cfa_offset 0
 194 00f4 67800000 		jr	ra
 195              		.cfi_endproc
 196              	.LFE40:
 198              		.align	2
 199              		.globl	_ZN3PCBnaEm
 201              	_ZN3PCBnaEm:
 202              	.LFB41:
  38:src/pcb.cpp   **** 
  39:src/pcb.cpp   **** void *PCB::operator new[](PCB::size_t n) {
 203              		.loc 1 39 42 is_stmt 1
 204              		.cfi_startproc
 205              	.LVL16:
 206 00f8 130101FF 		addi	sp,sp,-16
 207              		.cfi_def_cfa_offset 16
GAS LISTING /tmp/cciXq2vq.s 			page 6


 208 00fc 23341100 		sd	ra,8(sp)
 209 0100 23308100 		sd	s0,0(sp)
 210              		.cfi_offset 1, -8
 211              		.cfi_offset 8, -16
 212 0104 13040101 		addi	s0,sp,16
 213              		.cfi_def_cfa 8, 0
  40:src/pcb.cpp   ****     return __mem_alloc(n);
 214              		.loc 1 40 5
 215              		.loc 1 40 23 is_stmt 0
 216 0108 97000000 		call	__mem_alloc@plt
 216      E7800000 
 217              	.LVL17:
  41:src/pcb.cpp   **** }
 218              		.loc 1 41 1
 219 0110 83308100 		ld	ra,8(sp)
 220              		.cfi_restore 1
 221 0114 03340100 		ld	s0,0(sp)
 222              		.cfi_restore 8
 223              		.cfi_def_cfa 2, 16
 224 0118 13010101 		addi	sp,sp,16
 225              		.cfi_def_cfa_offset 0
 226 011c 67800000 		jr	ra
 227              		.cfi_endproc
 228              	.LFE41:
 230              		.align	2
 231              		.globl	_ZN3PCBdlEPv
 233              	_ZN3PCBdlEPv:
 234              	.LFB42:
  42:src/pcb.cpp   **** 
  43:src/pcb.cpp   **** void PCB::operator delete(void *p)
  44:src/pcb.cpp   **** 
  45:src/pcb.cpp   **** noexcept {
 235              		.loc 1 45 10 is_stmt 1
 236              		.cfi_startproc
 237              		.cfi_personality 0x9b,DW.ref.__gxx_personality_v0
 238              		.cfi_lsda 0x1b,.LLSDA42
 239              	.LVL18:
 240 0120 130101FF 		addi	sp,sp,-16
 241              		.cfi_def_cfa_offset 16
 242 0124 23341100 		sd	ra,8(sp)
 243 0128 23308100 		sd	s0,0(sp)
 244              		.cfi_offset 1, -8
 245              		.cfi_offset 8, -16
 246 012c 13040101 		addi	s0,sp,16
 247              		.cfi_def_cfa 8, 0
  46:src/pcb.cpp   **** __mem_free(p);
 248              		.loc 1 46 1
 249              		.loc 1 46 11 is_stmt 0
 250 0130 97000000 		call	__mem_free@plt
 250      E7800000 
 251              	.LVL19:
  47:src/pcb.cpp   **** }
 252              		.loc 1 47 1
 253 0138 83308100 		ld	ra,8(sp)
 254              		.cfi_restore 1
 255 013c 03340100 		ld	s0,0(sp)
 256              		.cfi_restore 8
GAS LISTING /tmp/cciXq2vq.s 			page 7


 257              		.cfi_def_cfa 2, 16
 258 0140 13010101 		addi	sp,sp,16
 259              		.cfi_def_cfa_offset 0
 260 0144 67800000 		jr	ra
 261              		.cfi_endproc
 262              	.LFE42:
 263              		.globl	__gxx_personality_v0
 264              		.section	.gcc_except_table,"a",@progbits
 265              	.LLSDA42:
 266 0000 FF       		.byte	0xff
 267 0001 FF       		.byte	0xff
 268 0002 03       		.byte	0x3
 269 0003 00       		.byte	0
 270              		.text
 272              		.align	2
 273              		.globl	_ZN3PCB12createThreadEPFvPvES0_Pm
 275              	_ZN3PCB12createThreadEPFvPvES0_Pm:
 276              	.LFB37:
   7:src/pcb.cpp   **** 
 277              		.loc 1 7 65 is_stmt 1
 278              		.cfi_startproc
 279              		.cfi_personality 0x9b,DW.ref.__gxx_personality_v0
 280              		.cfi_lsda 0x1b,.LLSDA37
 281              	.LVL20:
 282 0148 130101FD 		addi	sp,sp,-48
 283              		.cfi_def_cfa_offset 48
 284 014c 23341102 		sd	ra,40(sp)
 285 0150 23308102 		sd	s0,32(sp)
 286 0154 233C9100 		sd	s1,24(sp)
 287 0158 23382101 		sd	s2,16(sp)
 288 015c 23343101 		sd	s3,8(sp)
 289 0160 23304101 		sd	s4,0(sp)
 290              		.cfi_offset 1, -8
 291              		.cfi_offset 8, -16
 292              		.cfi_offset 9, -24
 293              		.cfi_offset 18, -32
 294              		.cfi_offset 19, -40
 295              		.cfi_offset 20, -48
 296 0164 13040103 		addi	s0,sp,48
 297              		.cfi_def_cfa 8, 0
 298 0168 13090500 		mv	s2,a0
 299 016c 138A0500 		mv	s4,a1
 300 0170 93090600 		mv	s3,a2
   9:src/pcb.cpp   **** }
 301              		.loc 1 9 5
   9:src/pcb.cpp   **** }
 302              		.loc 1 9 35 is_stmt 0
 303 0174 13058003 		li	a0,56
 304              	.LVL21:
 305              	.LEHB0:
 306 0178 97000000 		call	_ZN3PCBnwEm
 306      E7800000 
 307              	.LVL22:
 308              	.LEHE0:
 309 0180 93040500 		mv	s1,a0
 310              	.LVL23:
 311              	.LBB21:
GAS LISTING /tmp/cciXq2vq.s 			page 8


 312              	.LBB22:
  21:src/../h/pcb.hpp **** 
  22:src/../h/pcb.hpp ****     void setBlocked(bool value) { blocked = value; }
  23:src/../h/pcb.hpp **** 
  24:src/../h/pcb.hpp ****     void setDeblockFromSemClose(bool value) { semClose = value; }
  25:src/../h/pcb.hpp **** 
  26:src/../h/pcb.hpp ****     using Body = void (*)(void *);
  27:src/../h/pcb.hpp **** 
  28:src/../h/pcb.hpp ****     uint64 getTimeSlice() const;
  29:src/../h/pcb.hpp **** 
  30:src/../h/pcb.hpp ****     static PCB *createThread(Body body, void *arg, uint64 *stek);
  31:src/../h/pcb.hpp **** 
  32:src/../h/pcb.hpp ****     static PCB *running;
  33:src/../h/pcb.hpp **** 
  34:src/../h/pcb.hpp **** 
  35:src/../h/pcb.hpp **** private:
  36:src/../h/pcb.hpp ****     PCB(Body body, void *arg, uint64 *stek) :
  37:src/../h/pcb.hpp ****             body(body),
  38:src/../h/pcb.hpp ****             stack(body != nullptr ? stek : nullptr),
  39:src/../h/pcb.hpp ****             context({
  40:src/../h/pcb.hpp ****                             (uint64) &threadWrapper,
  41:src/../h/pcb.hpp ****                             stack != nullptr ? (uint64) &stack + DEFAULT_STACK_SIZE : 0
  42:src/../h/pcb.hpp ****                     }),
  43:src/../h/pcb.hpp ****             timeSlice(DEFAULT_TIME_SLICE),
  44:src/../h/pcb.hpp ****             finished(false),
  45:src/../h/pcb.hpp ****             blocked(false),
  46:src/../h/pcb.hpp ****             semClose(false),
  47:src/../h/pcb.hpp ****             arg(arg) {
 313              		.loc 2 47 20
 314 0184 23302501 		sd	s2,0(a0)
  38:src/../h/pcb.hpp ****             context({
 315              		.loc 2 38 35
 316 0188 630A0904 		beqz	s2,.L22
 317              	.LVL24:
 318              	.L14:
 319              		.loc 2 47 20
 320 018c 23B43401 		sd	s3,8(s1)
 321 0190 97070000 		lla	a5,_ZN3PCB13threadWrapperEv
 321      93870700 
 322 0198 23B8F400 		sd	a5,16(s1)
  41:src/../h/pcb.hpp ****                     }),
 323              		.loc 2 41 46
 324 019c 63840904 		beqz	s3,.L19
  41:src/../h/pcb.hpp ****                     }),
 325              		.loc 2 41 57
 326 01a0 93878400 		addi	a5,s1,8
  41:src/../h/pcb.hpp ****                     }),
 327              		.loc 2 41 46
 328 01a4 37170000 		li	a4,4096
 329 01a8 B387E700 		add	a5,a5,a4
 330              	.L15:
 331              		.loc 2 47 20
 332 01ac 23BCF400 		sd	a5,24(s1)
 333 01b0 93072000 		li	a5,2
 334 01b4 23B0F402 		sd	a5,32(s1)
 335 01b8 23840402 		sb	zero,40(s1)
 336 01bc A3840402 		sb	zero,41(s1)
GAS LISTING /tmp/cciXq2vq.s 			page 9


 337 01c0 23850402 		sb	zero,42(s1)
 338 01c4 23B84403 		sd	s4,48(s1)
  48:src/../h/pcb.hpp ****         if (body != nullptr) {
 339              		.loc 2 48 9 is_stmt 1
 340 01c8 63000904 		beqz	s2,.L13
  49:src/../h/pcb.hpp ****             Scheduler::put(this);
 341              		.loc 2 49 13
 342              		.loc 2 49 27 is_stmt 0
 343 01cc 13850400 		mv	a0,s1
 344              	.LEHB1:
 345 01d0 97000000 		call	_ZN9Scheduler3putEP3PCB@plt
 345      E7800000 
 346              	.LVL25:
 347              	.LEHE1:
 348 01d8 6F000003 		j	.L13
 349              	.LVL26:
 350              	.L22:
  38:src/../h/pcb.hpp ****             context({
 351              		.loc 2 38 35
 352 01dc 93090000 		li	s3,0
 353              	.LVL27:
 354 01e0 6FF0DFFA 		j	.L14
 355              	.L19:
  41:src/../h/pcb.hpp ****                     }),
 356              		.loc 2 41 46
 357 01e4 93070000 		li	a5,0
 358 01e8 6FF05FFC 		j	.L15
 359              	.L20:
 360 01ec 13090500 		mv	s2,a0
 361              	.LVL28:
 362              	.LBE22:
 363              	.LBE21:
   9:src/pcb.cpp   **** }
 364              		.loc 1 9 35
 365 01f0 13850400 		mv	a0,s1
 366 01f4 97000000 		call	_ZN3PCBdlEPv
 366      E7800000 
 367              	.LVL29:
 368 01fc 13050900 		mv	a0,s2
 369              	.LEHB2:
 370 0200 97000000 		call	_Unwind_Resume@plt
 370      E7800000 
 371              	.LVL30:
 372              	.LEHE2:
 373              	.L13:
  10:src/pcb.cpp   **** 
 374              		.loc 1 10 1
 375 0208 13850400 		mv	a0,s1
 376 020c 83308102 		ld	ra,40(sp)
 377              		.cfi_restore 1
 378 0210 03340102 		ld	s0,32(sp)
 379              		.cfi_restore 8
 380              		.cfi_def_cfa 2, 48
 381 0214 83348101 		ld	s1,24(sp)
 382              		.cfi_restore 9
 383              	.LVL31:
 384 0218 03390101 		ld	s2,16(sp)
GAS LISTING /tmp/cciXq2vq.s 			page 10


 385              		.cfi_restore 18
 386              	.LVL32:
 387 021c 83398100 		ld	s3,8(sp)
 388              		.cfi_restore 19
 389 0220 033A0100 		ld	s4,0(sp)
 390              		.cfi_restore 20
 391              	.LVL33:
 392 0224 13010103 		addi	sp,sp,48
 393              		.cfi_def_cfa_offset 0
 394 0228 67800000 		jr	ra
 395              		.cfi_endproc
 396              	.LFE37:
 397              		.section	.gcc_except_table
 398              	.LLSDA37:
 399 0004 FF       		.byte	0xff
 400 0005 FF       		.byte	0xff
 401 0006 03       		.byte	0x3
 402 0007 27       		.byte	0x27
 403 0008 00000000 		.4byte	.LEHB0-.LFB37
 404 000c 00000000 		.4byte	.LEHE0-.LEHB0
 405 0010 00000000 		.4byte	0
 406 0014 00       		.byte	0
 407 0015 00000000 		.4byte	.LEHB1-.LFB37
 408 0019 00000000 		.4byte	.LEHE1-.LEHB1
 409 001d 00000000 		.4byte	.L20-.LFB37
 410 0021 00       		.byte	0
 411 0022 00000000 		.4byte	.LEHB2-.LFB37
 412 0026 00000000 		.4byte	.LEHE2-.LEHB2
 413 002a 00000000 		.4byte	0
 414 002e 00       		.byte	0
 415              		.text
 417              		.align	2
 418              		.globl	_ZN3PCBdaEPv
 420              	_ZN3PCBdaEPv:
 421              	.LFB43:
  48:src/pcb.cpp   **** 
  49:src/pcb.cpp   **** void PCB::operator delete[](void *p)
  50:src/pcb.cpp   **** 
  51:src/pcb.cpp   **** noexcept {
 422              		.loc 1 51 10 is_stmt 1
 423              		.cfi_startproc
 424              		.cfi_personality 0x9b,DW.ref.__gxx_personality_v0
 425              		.cfi_lsda 0x1b,.LLSDA43
 426              	.LVL34:
 427 022c 130101FF 		addi	sp,sp,-16
 428              		.cfi_def_cfa_offset 16
 429 0230 23341100 		sd	ra,8(sp)
 430 0234 23308100 		sd	s0,0(sp)
 431              		.cfi_offset 1, -8
 432              		.cfi_offset 8, -16
 433 0238 13040101 		addi	s0,sp,16
 434              		.cfi_def_cfa 8, 0
  52:src/pcb.cpp   **** __mem_free(p);
 435              		.loc 1 52 1
 436              		.loc 1 52 11 is_stmt 0
 437 023c 97000000 		call	__mem_free@plt
 437      E7800000 
GAS LISTING /tmp/cciXq2vq.s 			page 11


 438              	.LVL35:
  53:src/pcb.cpp   **** }
 439              		.loc 1 53 1
 440 0244 83308100 		ld	ra,8(sp)
 441              		.cfi_restore 1
 442 0248 03340100 		ld	s0,0(sp)
 443              		.cfi_restore 8
 444              		.cfi_def_cfa 2, 16
 445 024c 13010101 		addi	sp,sp,16
 446              		.cfi_def_cfa_offset 0
 447 0250 67800000 		jr	ra
 448              		.cfi_endproc
 449              	.LFE43:
 450              		.section	.gcc_except_table
 451              	.LLSDA43:
 452 002f FF       		.byte	0xff
 453 0030 FF       		.byte	0xff
 454 0031 03       		.byte	0x3
 455 0032 00       		.byte	0
 456              		.text
 458              		.align	2
 459              		.globl	_ZNK3PCB12getTimeSliceEv
 461              	_ZNK3PCB12getTimeSliceEv:
 462              	.LFB44:
  54:src/pcb.cpp   **** 
  55:src/pcb.cpp   **** uint64 PCB::getTimeSlice() const {
 463              		.loc 1 55 34 is_stmt 1
 464              		.cfi_startproc
 465              	.LVL36:
 466 0254 130101FF 		addi	sp,sp,-16
 467              		.cfi_def_cfa_offset 16
 468 0258 23348100 		sd	s0,8(sp)
 469              		.cfi_offset 8, -8
 470 025c 13040101 		addi	s0,sp,16
 471              		.cfi_def_cfa 8, 0
  56:src/pcb.cpp   ****     return timeSlice;
 472              		.loc 1 56 5
  57:src/pcb.cpp   **** }
 473              		.loc 1 57 1 is_stmt 0
 474 0260 03350502 		ld	a0,32(a0)
 475              	.LVL37:
 476 0264 03348100 		ld	s0,8(sp)
 477              		.cfi_restore 8
 478              		.cfi_def_cfa 2, 16
 479 0268 13010101 		addi	sp,sp,16
 480              		.cfi_def_cfa_offset 0
 481 026c 67800000 		jr	ra
 482              		.cfi_endproc
 483              	.LFE44:
 485              		.globl	_ZN3PCB16timeSliceCounterE
 486              		.globl	_ZN3PCB7runningE
 487              		.bss
 488              		.align	3
 489              		.set	.LANCHOR0,. + 0
 492              	_ZN3PCB7runningE:
 493 0000 00000000 		.zero	8
 493      00000000 
GAS LISTING /tmp/cciXq2vq.s 			page 12


 496              	_ZN3PCB16timeSliceCounterE:
 497 0008 00000000 		.zero	8
 497      00000000 
 498              		.text
 499              	.Letext0:
 500              		.file 3 "src/../h/../lib/hw.h"
 501              		.file 4 "src/../h/scheduler.hpp"
 502              		.file 5 "src/../h/riscv.hpp"
 503              		.file 6 "src/../h/../lib/mem.h"
 3280              		.align	3
 3283              	DW.ref.__gxx_personality_v0:
 3284 0000 00000000 		.dword	__gxx_personality_v0
 3284      00000000 
 3285              		.ident	"GCC: (Ubuntu 9.4.0-1ubuntu1~20.04) 9.4.0"
 3286              		.section	.note.GNU-stack,"",@progbits
GAS LISTING /tmp/cciXq2vq.s 			page 13


DEFINED SYMBOLS
                            *ABS*:0000000000000000 pcb.cpp
     /tmp/cciXq2vq.s:9      .text:0000000000000000 _ZN3PCB13threadWrapperEv
     /tmp/cciXq2vq.s:13     .text:0000000000000000 .L0 
     /tmp/cciXq2vq.s:14     .text:0000000000000000 .L0 
     /tmp/cciXq2vq.s:15     .text:0000000000000004 .L0 
     /tmp/cciXq2vq.s:19     .text:0000000000000010 .L0 
     /tmp/cciXq2vq.s:20     .text:0000000000000010 .L0 
     /tmp/cciXq2vq.s:21     .text:0000000000000010 .L0 
     /tmp/cciXq2vq.s:23     .text:0000000000000014 .L0 
     /tmp/cciXq2vq.s:25     .text:0000000000000014 .L0 
     /tmp/cciXq2vq.s:26     .text:0000000000000014 .L0 
     /tmp/cciXq2vq.s:29     .text:000000000000001c .L0 
     /tmp/cciXq2vq.s:30     .text:000000000000001c .L0 
     /tmp/cciXq2vq.s:40     .text:000000000000002c .L0 
     /tmp/cciXq2vq.s:41     .text:000000000000002c .L0 
     /tmp/cciXq2vq.s:45     .text:0000000000000034 .L0 
     /tmp/cciXq2vq.s:46     .text:0000000000000034 .L0 
     /tmp/cciXq2vq.s:51     .text:0000000000000038 .L0 
     /tmp/cciXq2vq.s:52     .text:0000000000000038 .L0 
     /tmp/cciXq2vq.s:58     .text:0000000000000040 .L0 
     /tmp/cciXq2vq.s:59     .text:0000000000000040 .L0 
     /tmp/cciXq2vq.s:60     .text:0000000000000040 .L0 
     /tmp/cciXq2vq.s:66     .text:0000000000000048 .L0 
         src/pcb.cpp:32     .text:0000000000000048 .L0 
     /tmp/cciXq2vq.s:72     .text:000000000000004c .L0 
     /tmp/cciXq2vq.s:73     .text:0000000000000050 .L0 
     /tmp/cciXq2vq.s:75     .text:0000000000000054 .L0 
     /tmp/cciXq2vq.s:76     .text:0000000000000054 .L0 
     /tmp/cciXq2vq.s:78     .text:0000000000000058 .L0 
     /tmp/cciXq2vq.s:80     .text:000000000000005c .L0 
     /tmp/cciXq2vq.s:82     .text:0000000000000060 .L0 
     /tmp/cciXq2vq.s:88     .text:0000000000000060 _ZN3PCB8dispatchEv
     /tmp/cciXq2vq.s:91     .text:0000000000000060 .L0 
     /tmp/cciXq2vq.s:92     .text:0000000000000060 .L0 
     /tmp/cciXq2vq.s:93     .text:0000000000000064 .L0 
     /tmp/cciXq2vq.s:97     .text:0000000000000070 .L0 
     /tmp/cciXq2vq.s:98     .text:0000000000000070 .L0 
     /tmp/cciXq2vq.s:99     .text:0000000000000070 .L0 
     /tmp/cciXq2vq.s:101    .text:0000000000000074 .L0 
     /tmp/cciXq2vq.s:103    .text:0000000000000074 .L0 
     /tmp/cciXq2vq.s:104    .text:0000000000000074 .L0 
     /tmp/cciXq2vq.s:109    .text:000000000000007c .L0 
     /tmp/cciXq2vq.s:110    .text:000000000000007c .L0 
     /tmp/cciXq2vq.s:111    .text:000000000000007c .L0 
     /tmp/cciXq2vq.s:116    .text:0000000000000080 .L0 
     /tmp/cciXq2vq.s:121    .text:0000000000000084 .L0 
     /tmp/cciXq2vq.s:122    .text:0000000000000084 .L0 
     /tmp/cciXq2vq.s:127    .text:0000000000000088 .L0 
     /tmp/cciXq2vq.s:130    .text:000000000000008c .L0 
     /tmp/cciXq2vq.s:131    .text:000000000000008c .L0 
     /tmp/cciXq2vq.s:134    .text:0000000000000094 .L0 
     /tmp/cciXq2vq.s:136    .text:000000000000009c .L0 
     /tmp/cciXq2vq.s:137    .text:000000000000009c .L0 
     /tmp/cciXq2vq.s:142    .text:00000000000000ac .L0 
     /tmp/cciXq2vq.s:143    .text:00000000000000b0 .L0 
     /tmp/cciXq2vq.s:144    .text:00000000000000b0 .L0 
GAS LISTING /tmp/cciXq2vq.s 			page 14


     /tmp/cciXq2vq.s:146    .text:00000000000000b4 .L0 
     /tmp/cciXq2vq.s:147    .text:00000000000000b4 .L0 
     /tmp/cciXq2vq.s:149    .text:00000000000000b8 .L0 
     /tmp/cciXq2vq.s:152    .text:00000000000000bc .L0 
     /tmp/cciXq2vq.s:156    .text:00000000000000c0 .L0 
     /tmp/cciXq2vq.s:158    .text:00000000000000c0 .L0 
     /tmp/cciXq2vq.s:159    .text:00000000000000c0 .L0 
     /tmp/cciXq2vq.s:163    .text:00000000000000d0 .L0 
     /tmp/cciXq2vq.s:169    .text:00000000000000d0 _ZN3PCBnwEm
     /tmp/cciXq2vq.s:172    .text:00000000000000d0 .L0 
     /tmp/cciXq2vq.s:174    .text:00000000000000d0 .L0 
     /tmp/cciXq2vq.s:175    .text:00000000000000d4 .L0 
     /tmp/cciXq2vq.s:178    .text:00000000000000dc .L0 
     /tmp/cciXq2vq.s:179    .text:00000000000000dc .L0 
     /tmp/cciXq2vq.s:181    .text:00000000000000e0 .L0 
     /tmp/cciXq2vq.s:183    .text:00000000000000e0 .L0 
     /tmp/cciXq2vq.s:184    .text:00000000000000e0 .L0 
     /tmp/cciXq2vq.s:187    .text:00000000000000e8 .L0 
     /tmp/cciXq2vq.s:188    .text:00000000000000ec .L0 
     /tmp/cciXq2vq.s:190    .text:00000000000000f0 .L0 
     /tmp/cciXq2vq.s:191    .text:00000000000000f0 .L0 
     /tmp/cciXq2vq.s:193    .text:00000000000000f4 .L0 
     /tmp/cciXq2vq.s:195    .text:00000000000000f8 .L0 
     /tmp/cciXq2vq.s:201    .text:00000000000000f8 _ZN3PCBnaEm
     /tmp/cciXq2vq.s:204    .text:00000000000000f8 .L0 
     /tmp/cciXq2vq.s:206    .text:00000000000000f8 .L0 
     /tmp/cciXq2vq.s:207    .text:00000000000000fc .L0 
     /tmp/cciXq2vq.s:210    .text:0000000000000104 .L0 
     /tmp/cciXq2vq.s:211    .text:0000000000000104 .L0 
     /tmp/cciXq2vq.s:213    .text:0000000000000108 .L0 
     /tmp/cciXq2vq.s:215    .text:0000000000000108 .L0 
     /tmp/cciXq2vq.s:216    .text:0000000000000108 .L0 
     /tmp/cciXq2vq.s:219    .text:0000000000000110 .L0 
     /tmp/cciXq2vq.s:220    .text:0000000000000114 .L0 
     /tmp/cciXq2vq.s:222    .text:0000000000000118 .L0 
     /tmp/cciXq2vq.s:223    .text:0000000000000118 .L0 
     /tmp/cciXq2vq.s:225    .text:000000000000011c .L0 
     /tmp/cciXq2vq.s:227    .text:0000000000000120 .L0 
     /tmp/cciXq2vq.s:233    .text:0000000000000120 _ZN3PCBdlEPv
     /tmp/cciXq2vq.s:236    .text:0000000000000120 .L0 
     /tmp/cciXq2vq.s:3283   .data.rel.local.DW.ref.__gxx_personality_v0:0000000000000000 DW.ref.__gxx_personality_v0
     /tmp/cciXq2vq.s:240    .text:0000000000000120 .L0 
     /tmp/cciXq2vq.s:241    .text:0000000000000124 .L0 
     /tmp/cciXq2vq.s:244    .text:000000000000012c .L0 
     /tmp/cciXq2vq.s:245    .text:000000000000012c .L0 
     /tmp/cciXq2vq.s:247    .text:0000000000000130 .L0 
     /tmp/cciXq2vq.s:249    .text:0000000000000130 .L0 
     /tmp/cciXq2vq.s:250    .text:0000000000000130 .L0 
     /tmp/cciXq2vq.s:253    .text:0000000000000138 .L0 
     /tmp/cciXq2vq.s:254    .text:000000000000013c .L0 
     /tmp/cciXq2vq.s:256    .text:0000000000000140 .L0 
     /tmp/cciXq2vq.s:257    .text:0000000000000140 .L0 
     /tmp/cciXq2vq.s:259    .text:0000000000000144 .L0 
     /tmp/cciXq2vq.s:261    .text:0000000000000148 .L0 
     /tmp/cciXq2vq.s:275    .text:0000000000000148 _ZN3PCB12createThreadEPFvPvES0_Pm
     /tmp/cciXq2vq.s:278    .text:0000000000000148 .L0 
     /tmp/cciXq2vq.s:282    .text:0000000000000148 .L0 
GAS LISTING /tmp/cciXq2vq.s 			page 15


     /tmp/cciXq2vq.s:283    .text:000000000000014c .L0 
     /tmp/cciXq2vq.s:290    .text:0000000000000164 .L0 
     /tmp/cciXq2vq.s:291    .text:0000000000000164 .L0 
     /tmp/cciXq2vq.s:292    .text:0000000000000164 .L0 
     /tmp/cciXq2vq.s:293    .text:0000000000000164 .L0 
     /tmp/cciXq2vq.s:294    .text:0000000000000164 .L0 
     /tmp/cciXq2vq.s:295    .text:0000000000000164 .L0 
     /tmp/cciXq2vq.s:297    .text:0000000000000168 .L0 
     /tmp/cciXq2vq.s:302    .text:0000000000000174 .L0 
     /tmp/cciXq2vq.s:303    .text:0000000000000174 .L0 
     /tmp/cciXq2vq.s:314    .text:0000000000000184 .L0 
     /tmp/cciXq2vq.s:316    .text:0000000000000188 .L0 
     /tmp/cciXq2vq.s:320    .text:000000000000018c .L0 
     /tmp/cciXq2vq.s:324    .text:000000000000019c .L0 
     /tmp/cciXq2vq.s:326    .text:00000000000001a0 .L0 
     /tmp/cciXq2vq.s:328    .text:00000000000001a4 .L0 
     /tmp/cciXq2vq.s:332    .text:00000000000001ac .L0 
     /tmp/cciXq2vq.s:340    .text:00000000000001c8 .L0 
     /tmp/cciXq2vq.s:342    .text:00000000000001cc .L0 
     /tmp/cciXq2vq.s:343    .text:00000000000001cc .L0 
     /tmp/cciXq2vq.s:352    .text:00000000000001dc .L0 
     /tmp/cciXq2vq.s:357    .text:00000000000001e4 .L0 
     /tmp/cciXq2vq.s:365    .text:00000000000001f0 .L0 
     /tmp/cciXq2vq.s:375    .text:0000000000000208 .L0 
     /tmp/cciXq2vq.s:377    .text:0000000000000210 .L0 
     /tmp/cciXq2vq.s:379    .text:0000000000000214 .L0 
     /tmp/cciXq2vq.s:380    .text:0000000000000214 .L0 
     /tmp/cciXq2vq.s:382    .text:0000000000000218 .L0 
     /tmp/cciXq2vq.s:385    .text:000000000000021c .L0 
     /tmp/cciXq2vq.s:388    .text:0000000000000220 .L0 
     /tmp/cciXq2vq.s:390    .text:0000000000000224 .L0 
     /tmp/cciXq2vq.s:393    .text:0000000000000228 .L0 
     /tmp/cciXq2vq.s:395    .text:000000000000022c .L0 
     /tmp/cciXq2vq.s:420    .text:000000000000022c _ZN3PCBdaEPv
     /tmp/cciXq2vq.s:423    .text:000000000000022c .L0 
     /tmp/cciXq2vq.s:427    .text:000000000000022c .L0 
     /tmp/cciXq2vq.s:428    .text:0000000000000230 .L0 
     /tmp/cciXq2vq.s:431    .text:0000000000000238 .L0 
     /tmp/cciXq2vq.s:432    .text:0000000000000238 .L0 
     /tmp/cciXq2vq.s:434    .text:000000000000023c .L0 
     /tmp/cciXq2vq.s:436    .text:000000000000023c .L0 
     /tmp/cciXq2vq.s:437    .text:000000000000023c .L0 
     /tmp/cciXq2vq.s:440    .text:0000000000000244 .L0 
     /tmp/cciXq2vq.s:441    .text:0000000000000248 .L0 
     /tmp/cciXq2vq.s:443    .text:000000000000024c .L0 
     /tmp/cciXq2vq.s:444    .text:000000000000024c .L0 
     /tmp/cciXq2vq.s:446    .text:0000000000000250 .L0 
     /tmp/cciXq2vq.s:448    .text:0000000000000254 .L0 
     /tmp/cciXq2vq.s:461    .text:0000000000000254 _ZNK3PCB12getTimeSliceEv
     /tmp/cciXq2vq.s:464    .text:0000000000000254 .L0 
     /tmp/cciXq2vq.s:466    .text:0000000000000254 .L0 
     /tmp/cciXq2vq.s:467    .text:0000000000000258 .L0 
     /tmp/cciXq2vq.s:469    .text:000000000000025c .L0 
     /tmp/cciXq2vq.s:471    .text:0000000000000260 .L0 
     /tmp/cciXq2vq.s:473    .text:0000000000000260 .L0 
     /tmp/cciXq2vq.s:474    .text:0000000000000260 .L0 
     /tmp/cciXq2vq.s:477    .text:0000000000000268 .L0 
GAS LISTING /tmp/cciXq2vq.s 			page 16


     /tmp/cciXq2vq.s:478    .text:0000000000000268 .L0 
     /tmp/cciXq2vq.s:480    .text:000000000000026c .L0 
     /tmp/cciXq2vq.s:482    .text:0000000000000270 .L0 
     /tmp/cciXq2vq.s:496    .bss:0000000000000008 _ZN3PCB16timeSliceCounterE
     /tmp/cciXq2vq.s:492    .bss:0000000000000000 _ZN3PCB7runningE
     /tmp/cciXq2vq.s:489    .bss:0000000000000000 .LANCHOR0
     /tmp/cciXq2vq.s:504    .text:0000000000000270 .L0 
     /tmp/cciXq2vq.s:30     .text:000000000000001c .L0 
     /tmp/cciXq2vq.s:104    .text:0000000000000074 .L0 
     /tmp/cciXq2vq.s:134    .text:0000000000000094 .L0 
     /tmp/cciXq2vq.s:321    .text:0000000000000190 .L0 
     /tmp/cciXq2vq.s:128    .text:000000000000008c .L4
     /tmp/cciXq2vq.s:155    .text:00000000000000c0 .L6
     /tmp/cciXq2vq.s:350    .text:00000000000001dc .L22
     /tmp/cciXq2vq.s:355    .text:00000000000001e4 .L19
     /tmp/cciXq2vq.s:373    .text:0000000000000208 .L13
     /tmp/cciXq2vq.s:318    .text:000000000000018c .L14
     /tmp/cciXq2vq.s:330    .text:00000000000001ac .L15
     /tmp/cciXq2vq.s:305    .text:0000000000000178 .LEHB0
     /tmp/cciXq2vq.s:276    .text:0000000000000148 .LFB37
     /tmp/cciXq2vq.s:308    .text:0000000000000180 .LEHE0
     /tmp/cciXq2vq.s:344    .text:00000000000001d0 .LEHB1
     /tmp/cciXq2vq.s:347    .text:00000000000001d8 .LEHE1
     /tmp/cciXq2vq.s:359    .text:00000000000001ec .L20
     /tmp/cciXq2vq.s:369    .text:0000000000000200 .LEHB2
     /tmp/cciXq2vq.s:372    .text:0000000000000208 .LEHE2
     /tmp/cciXq2vq.s:1769   .debug_abbrev:0000000000000000 .Ldebug_abbrev0
     /tmp/cciXq2vq.s:3239   .debug_str:000000000000068d .LASF117
     /tmp/cciXq2vq.s:3091   .debug_str:000000000000021e .LASF118
     /tmp/cciXq2vq.s:3167   .debug_str:000000000000044e .LASF119
     /tmp/cciXq2vq.s:5      .text:0000000000000000 .Ltext0
     /tmp/cciXq2vq.s:499    .text:0000000000000270 .Letext0
     /tmp/cciXq2vq.s:3015   .debug_line:0000000000000000 .Ldebug_line0
     /tmp/cciXq2vq.s:3157   .debug_str:0000000000000416 .LASF0
     /tmp/cciXq2vq.s:3177   .debug_str:0000000000000497 .LASF1
     /tmp/cciXq2vq.s:3143   .debug_str:00000000000003c5 .LASF2
     /tmp/cciXq2vq.s:3113   .debug_str:00000000000002e7 .LASF4
     /tmp/cciXq2vq.s:3219   .debug_str:00000000000005e8 .LASF3
     /tmp/cciXq2vq.s:3039   .debug_str:0000000000000076 .LASF5
     /tmp/cciXq2vq.s:3183   .debug_str:00000000000004b9 .LASF6
     /tmp/cciXq2vq.s:3155   .debug_str:0000000000000403 .LASF7
     /tmp/cciXq2vq.s:3247   .debug_str:0000000000000781 .LASF8
     /tmp/cciXq2vq.s:3099   .debug_str:0000000000000265 .LASF9
     /tmp/cciXq2vq.s:3195   .debug_str:0000000000000533 .LASF10
     /tmp/cciXq2vq.s:3243   .debug_str:0000000000000763 .LASF11
     /tmp/cciXq2vq.s:3043   .debug_str:000000000000008c .LASF12
     /tmp/cciXq2vq.s:3023   .debug_str:000000000000001f .LASF13
     /tmp/cciXq2vq.s:3059   .debug_str:000000000000012c .LASF14
     /tmp/cciXq2vq.s:3211   .debug_str:0000000000000599 .LASF15
     /tmp/cciXq2vq.s:3069   .debug_str:0000000000000170 .LASF16
     /tmp/cciXq2vq.s:3193   .debug_str:0000000000000529 .LASF25
     /tmp/cciXq2vq.s:3253   .debug_str:00000000000007b2 .LASF59
     /tmp/cciXq2vq.s:3257   .debug_str:00000000000007d8 .LASF17
     /tmp/cciXq2vq.s:3241   .debug_str:0000000000000751 .LASF19
     /tmp/cciXq2vq.s:3095   .debug_str:0000000000000243 .LASF18
     /tmp/cciXq2vq.s:3111   .debug_str:00000000000002d5 .LASF20
     /tmp/cciXq2vq.s:3227   .debug_str:0000000000000628 .LASF21
GAS LISTING /tmp/cciXq2vq.s 			page 17


     /tmp/cciXq2vq.s:3163   .debug_str:0000000000000433 .LASF23
     /tmp/cciXq2vq.s:3231   .debug_str:000000000000064e .LASF22
     /tmp/cciXq2vq.s:3207   .debug_str:000000000000057b .LASF24
     /tmp/cciXq2vq.s:3109   .debug_str:00000000000002c1 .LASF120
     /tmp/cciXq2vq.s:3133   .debug_str:0000000000000358 .LASF121
     /tmp/cciXq2vq.s:3127   .debug_str:000000000000032f .LASF122
     /tmp/cciXq2vq.s:3029   .debug_str:0000000000000042 .LASF123
     /tmp/cciXq2vq.s:3205   .debug_str:0000000000000576 .LASF34
     /tmp/cciXq2vq.s:3049   .debug_str:00000000000000cd .LASF36
     /tmp/cciXq2vq.s:3185   .debug_str:00000000000004cc .LASF26
     /tmp/cciXq2vq.s:3189   .debug_str:00000000000004f9 .LASF28
     /tmp/cciXq2vq.s:3027   .debug_str:0000000000000038 .LASF27
     /tmp/cciXq2vq.s:3125   .debug_str:000000000000031a .LASF29
     /tmp/cciXq2vq.s:3225   .debug_str:0000000000000612 .LASF30
     /tmp/cciXq2vq.s:3141   .debug_str:00000000000003a3 .LASF31
     /tmp/cciXq2vq.s:3123   .debug_str:0000000000000313 .LASF32
     /tmp/cciXq2vq.s:3131   .debug_str:0000000000000346 .LASF33
     /tmp/cciXq2vq.s:3145   .debug_str:00000000000003d3 .LASF35
     /tmp/cciXq2vq.s:3031   .debug_str:000000000000004a .LASF37
     /tmp/cciXq2vq.s:3117   .debug_str:00000000000002fa .LASF38
     /tmp/cciXq2vq.s:3199   .debug_str:0000000000000548 .LASF39
     /tmp/cciXq2vq.s:3259   .debug_str:00000000000007e5 .LASF40
     /tmp/cciXq2vq.s:3273   .debug_str:000000000000084e .LASF41
     /tmp/cciXq2vq.s:3137   .debug_str:0000000000000388 .LASF42
     /tmp/cciXq2vq.s:3093   .debug_str:000000000000022a .LASF43
     /tmp/cciXq2vq.s:3129   .debug_str:0000000000000339 .LASF44
     /tmp/cciXq2vq.s:3275   .debug_str:0000000000000870 .LASF45
     /tmp/cciXq2vq.s:3203   .debug_str:0000000000000571 .LASF124
     /tmp/cciXq2vq.s:3081   .debug_str:00000000000001d5 .LASF125
     /tmp/cciXq2vq.s:3229   .debug_str:0000000000000638 .LASF126
     /tmp/cciXq2vq.s:3121   .debug_str:000000000000030e .LASF46
     /tmp/cciXq2vq.s:3061   .debug_str:0000000000000138 .LASF47
     /tmp/cciXq2vq.s:3165   .debug_str:0000000000000446 .LASF48
     /tmp/cciXq2vq.s:3169   .debug_str:000000000000046e .LASF49
     /tmp/cciXq2vq.s:3119   .debug_str:0000000000000305 .LASF50
     /tmp/cciXq2vq.s:3017   .debug_str:0000000000000000 .LASF51
     /tmp/cciXq2vq.s:3147   .debug_str:00000000000003df .LASF52
     /tmp/cciXq2vq.s:3139   .debug_str:0000000000000395 .LASF55
     /tmp/cciXq2vq.s:3191   .debug_str:0000000000000510 .LASF57
     /tmp/cciXq2vq.s:3065   .debug_str:000000000000014a .LASF53
     /tmp/cciXq2vq.s:3055   .debug_str:00000000000000fa .LASF54
     /tmp/cciXq2vq.s:3161   .debug_str:000000000000042a .LASF56
     /tmp/cciXq2vq.s:3107   .debug_str:00000000000002ae .LASF58
     /tmp/cciXq2vq.s:3221   .debug_str:00000000000005fa .LASF60
     /tmp/cciXq2vq.s:3115   .debug_str:00000000000002ee .LASF61
     /tmp/cciXq2vq.s:3063   .debug_str:000000000000013e .LASF62
     /tmp/cciXq2vq.s:3267   .debug_str:0000000000000826 .LASF63
     /tmp/cciXq2vq.s:3261   .debug_str:00000000000007fc .LASF107
     /tmp/cciXq2vq.s:3087   .debug_str:0000000000000206 .LASF64
     /tmp/cciXq2vq.s:3173   .debug_str:0000000000000486 .LASF65
     /tmp/cciXq2vq.s:3209   .debug_str:000000000000058e .LASF98
     /tmp/cciXq2vq.s:3265   .debug_str:000000000000080e .LASF100
     /tmp/cciXq2vq.s:3025   .debug_str:000000000000002f .LASF66
     /tmp/cciXq2vq.s:3083   .debug_str:00000000000001dd .LASF70
     /tmp/cciXq2vq.s:3079   .debug_str:00000000000001cc .LASF67
     /tmp/cciXq2vq.s:3077   .debug_str:00000000000001b7 .LASF68
     /tmp/cciXq2vq.s:3223   .debug_str:000000000000060b .LASF69
GAS LISTING /tmp/cciXq2vq.s 			page 18


     /tmp/cciXq2vq.s:3201   .debug_str:000000000000055e .LASF71
     /tmp/cciXq2vq.s:3237   .debug_str:0000000000000686 .LASF72
     /tmp/cciXq2vq.s:3233   .debug_str:0000000000000661 .LASF73
     /tmp/cciXq2vq.s:3181   .debug_str:00000000000004b1 .LASF74
     /tmp/cciXq2vq.s:3071   .debug_str:0000000000000186 .LASF75
     /tmp/cciXq2vq.s:3021   .debug_str:0000000000000017 .LASF76
     /tmp/cciXq2vq.s:3103   .debug_str:0000000000000289 .LASF77
     /tmp/cciXq2vq.s:3037   .debug_str:000000000000006e .LASF78
     /tmp/cciXq2vq.s:3255   .debug_str:00000000000007c4 .LASF79
     /tmp/cciXq2vq.s:3271   .debug_str:0000000000000846 .LASF80
     /tmp/cciXq2vq.s:3085   .debug_str:00000000000001f2 .LASF81
     /tmp/cciXq2vq.s:3159   .debug_str:0000000000000423 .LASF82
     /tmp/cciXq2vq.s:3269   .debug_str:0000000000000833 .LASF83
     /tmp/cciXq2vq.s:3035   .debug_str:0000000000000067 .LASF84
     /tmp/cciXq2vq.s:3089   .debug_str:000000000000020b .LASF85
     /tmp/cciXq2vq.s:3151   .debug_str:00000000000003f2 .LASF86
     /tmp/cciXq2vq.s:3235   .debug_str:0000000000000674 .LASF87
     /tmp/cciXq2vq.s:3033   .debug_str:0000000000000061 .LASF88
     /tmp/cciXq2vq.s:3097   .debug_str:0000000000000253 .LASF89
     /tmp/cciXq2vq.s:3153   .debug_str:00000000000003f8 .LASF90
     /tmp/cciXq2vq.s:3215   .debug_str:00000000000005ba .LASF91
     /tmp/cciXq2vq.s:3175   .debug_str:000000000000048c .LASF92
     /tmp/cciXq2vq.s:3135   .debug_str:0000000000000370 .LASF93
     /tmp/cciXq2vq.s:3057   .debug_str:0000000000000122 .LASF94
     /tmp/cciXq2vq.s:3217   .debug_str:00000000000005d2 .LASF95
     /tmp/cciXq2vq.s:3149   .debug_str:00000000000003e8 .LASF96
     /tmp/cciXq2vq.s:3101   .debug_str:0000000000000273 .LASF97
     /tmp/cciXq2vq.s:3073   .debug_str:000000000000019a .LASF99
     /tmp/cciXq2vq.s:3051   .debug_str:00000000000000d9 .LASF101
     /tmp/cciXq2vq.s:3251   .debug_str:000000000000079d .LASF102
     /tmp/cciXq2vq.s:3187   .debug_str:00000000000004d7 .LASF103
     /tmp/cciXq2vq.s:3075   .debug_str:00000000000001a9 .LASF104
     /tmp/cciXq2vq.s:3171   .debug_str:0000000000000478 .LASF105
     /tmp/cciXq2vq.s:3245   .debug_str:0000000000000772 .LASF106
     /tmp/cciXq2vq.s:3019   .debug_str:0000000000000008 .LASF108
     /tmp/cciXq2vq.s:3105   .debug_str:000000000000029d .LASF109
     /tmp/cciXq2vq.s:3047   .debug_str:00000000000000b2 .LASF110
     /tmp/cciXq2vq.s:462    .text:0000000000000254 .LFB44
     /tmp/cciXq2vq.s:483    .text:0000000000000270 .LFE44
     /tmp/cciXq2vq.s:3263   .debug_str:0000000000000809 .LASF113
     /tmp/cciXq2vq.s:2741   .debug_loc:0000000000000000 .LLST16
     /tmp/cciXq2vq.s:421    .text:000000000000022c .LFB43
     /tmp/cciXq2vq.s:449    .text:0000000000000254 .LFE43
     /tmp/cciXq2vq.s:2755   .debug_loc:0000000000000039 .LLST15
     /tmp/cciXq2vq.s:438    .text:0000000000000244 .LVL35
     /tmp/cciXq2vq.s:234    .text:0000000000000120 .LFB42
     /tmp/cciXq2vq.s:262    .text:0000000000000148 .LFE42
     /tmp/cciXq2vq.s:2769   .debug_loc:0000000000000072 .LLST7
     /tmp/cciXq2vq.s:251    .text:0000000000000138 .LVL19
     /tmp/cciXq2vq.s:202    .text:00000000000000f8 .LFB41
     /tmp/cciXq2vq.s:228    .text:0000000000000120 .LFE41
     /tmp/cciXq2vq.s:2783   .debug_loc:00000000000000ab .LLST6
     /tmp/cciXq2vq.s:217    .text:0000000000000110 .LVL17
     /tmp/cciXq2vq.s:170    .text:00000000000000d0 .LFB40
     /tmp/cciXq2vq.s:196    .text:00000000000000f8 .LFE40
     /tmp/cciXq2vq.s:2797   .debug_loc:00000000000000e4 .LLST5
     /tmp/cciXq2vq.s:185    .text:00000000000000e8 .LVL15
GAS LISTING /tmp/cciXq2vq.s 			page 19


     /tmp/cciXq2vq.s:10     .text:0000000000000000 .LFB39
     /tmp/cciXq2vq.s:83     .text:0000000000000060 .LFE39
     /tmp/cciXq2vq.s:3179   .debug_str:00000000000004aa .LASF111
     /tmp/cciXq2vq.s:34     .text:000000000000002c .LBB10
     /tmp/cciXq2vq.s:39     .text:000000000000002c .LBE10
     /tmp/cciXq2vq.s:48     .text:0000000000000038 .LBB12
     /tmp/cciXq2vq.s:56     .text:0000000000000040 .LBE12
     /tmp/cciXq2vq.s:2811   .debug_loc:000000000000011d .LLST0
     /tmp/cciXq2vq.s:2819   .debug_loc:0000000000000141 .LLST1
     /tmp/cciXq2vq.s:27     .text:000000000000001c .LVL0
     /tmp/cciXq2vq.s:89     .text:0000000000000060 .LFB38
     /tmp/cciXq2vq.s:164    .text:00000000000000d0 .LFE38
     /tmp/cciXq2vq.s:2826   .debug_loc:0000000000000164 .LLST2
     /tmp/cciXq2vq.s:107    .text:000000000000007c .LBB14
     /tmp/cciXq2vq.s:114    .text:0000000000000080 .LBE14
     /tmp/cciXq2vq.s:2837   .debug_loc:000000000000019a .LLST3
     /tmp/cciXq2vq.s:118    .text:0000000000000084 .LBB16
     /tmp/cciXq2vq.s:125    .text:0000000000000088 .LBE16
     /tmp/cciXq2vq.s:2844   .debug_loc:00000000000001bd .LLST4
     /tmp/cciXq2vq.s:132    .text:0000000000000094 .LVL9
     /tmp/cciXq2vq.s:140    .text:00000000000000ac .LVL10
     /tmp/cciXq2vq.s:161    .text:00000000000000cc .LVL13
     /tmp/cciXq2vq.s:396    .text:000000000000022c .LFE37
     /tmp/cciXq2vq.s:2851   .debug_loc:00000000000001e0 .LLST8
     /tmp/cciXq2vq.s:2880   .debug_loc:0000000000000255 .LLST9
     /tmp/cciXq2vq.s:3053   .debug_str:00000000000000f5 .LASF112
     /tmp/cciXq2vq.s:2898   .debug_loc:00000000000002a1 .LLST10
     /tmp/cciXq2vq.s:311    .text:0000000000000184 .LBB21
     /tmp/cciXq2vq.s:363    .text:00000000000001f0 .LBE21
     /tmp/cciXq2vq.s:2927   .debug_loc:0000000000000316 .LLST11
     /tmp/cciXq2vq.s:2952   .debug_loc:0000000000000378 .LLST12
     /tmp/cciXq2vq.s:2966   .debug_loc:00000000000003b1 .LLST13
     /tmp/cciXq2vq.s:2991   .debug_loc:0000000000000413 .LLST14
     /tmp/cciXq2vq.s:346    .text:00000000000001d8 .LVL25
     /tmp/cciXq2vq.s:307    .text:0000000000000180 .LVL22
     /tmp/cciXq2vq.s:367    .text:00000000000001fc .LVL29
     /tmp/cciXq2vq.s:371    .text:0000000000000208 .LVL30
     /tmp/cciXq2vq.s:3045   .debug_str:000000000000009c .LASF127
     /tmp/cciXq2vq.s:3197   .debug_str:0000000000000542 .LASF114
     /tmp/cciXq2vq.s:3213   .debug_str:00000000000005af .LASF115
     /tmp/cciXq2vq.s:3249   .debug_str:0000000000000791 .LASF116
     /tmp/cciXq2vq.s:3041   .debug_str:000000000000007d .LASF128
     /tmp/cciXq2vq.s:3067   .debug_str:0000000000000158 .LASF129
     /tmp/cciXq2vq.s:465    .text:0000000000000254 .LVL36
     /tmp/cciXq2vq.s:475    .text:0000000000000264 .LVL37
     /tmp/cciXq2vq.s:426    .text:000000000000022c .LVL34
     /tmp/cciXq2vq.s:239    .text:0000000000000120 .LVL18
     /tmp/cciXq2vq.s:205    .text:00000000000000f8 .LVL16
     /tmp/cciXq2vq.s:173    .text:00000000000000d0 .LVL14
     /tmp/cciXq2vq.s:47     .text:0000000000000038 .LVL3
     /tmp/cciXq2vq.s:54     .text:0000000000000040 .LVL4
     /tmp/cciXq2vq.s:105    .text:000000000000007c .LVL5
     /tmp/cciXq2vq.s:150    .text:00000000000000b8 .LVL11
     /tmp/cciXq2vq.s:154    .text:00000000000000c0 .LVL12
     /tmp/cciXq2vq.s:112    .text:0000000000000080 .LVL6
     /tmp/cciXq2vq.s:117    .text:0000000000000084 .LVL7
     /tmp/cciXq2vq.s:123    .text:0000000000000088 .LVL8
GAS LISTING /tmp/cciXq2vq.s 			page 20


     /tmp/cciXq2vq.s:281    .text:0000000000000148 .LVL20
     /tmp/cciXq2vq.s:304    .text:0000000000000178 .LVL21
     /tmp/cciXq2vq.s:361    .text:00000000000001f0 .LVL28
     /tmp/cciXq2vq.s:386    .text:000000000000021c .LVL32
     /tmp/cciXq2vq.s:391    .text:0000000000000224 .LVL33
     /tmp/cciXq2vq.s:317    .text:000000000000018c .LVL24
     /tmp/cciXq2vq.s:349    .text:00000000000001dc .LVL26
     /tmp/cciXq2vq.s:353    .text:00000000000001e0 .LVL27
     /tmp/cciXq2vq.s:310    .text:0000000000000184 .LVL23
     /tmp/cciXq2vq.s:383    .text:0000000000000218 .LVL31
     /tmp/cciXq2vq.s:505    .debug_info:0000000000000000 .Ldebug_info0
     /tmp/cciXq2vq.s:265    .gcc_except_table:0000000000000000 .LLSDA42
     /tmp/cciXq2vq.s:398    .gcc_except_table:0000000000000004 .LLSDA37
     /tmp/cciXq2vq.s:451    .gcc_except_table:000000000000002f .LLSDA43

UNDEFINED SYMBOLS
_ZN5Riscv10popSppSpieEv
_ZN9Scheduler3getEv
_ZN3PCB13contextSwitchEPNS_7ContextES1_
_ZN9Scheduler3putEP3PCB
__mem_alloc
__mem_free
__gxx_personality_v0
_Unwind_Resume
