GAS LISTING /tmp/ccomj4KC.s 			page 1


   1              		.file	"scheduler.cpp"
   2              		.option pic
   3              		.option norelax
   4              		.text
   5              	.Ltext0:
   6              		.align	2
   8              	_Z41__static_initialization_and_destruction_0ii:
   9              	.LFB22:
  10              		.file 1 "src/scheduler.cpp"
   1:src/scheduler.cpp **** #include "../h/scheduler.hpp"
   2:src/scheduler.cpp **** 
   3:src/scheduler.cpp **** List<PCB> Scheduler::readyThreadsQueue;
   4:src/scheduler.cpp **** 
   5:src/scheduler.cpp **** PCB *Scheduler::get() {
   6:src/scheduler.cpp ****     return readyThreadsQueue.removeFirst();
   7:src/scheduler.cpp **** }
   8:src/scheduler.cpp **** 
   9:src/scheduler.cpp **** void Scheduler::put(PCB *thread) {
  10:src/scheduler.cpp ****     readyThreadsQueue.addLast(thread);
  11:src/scheduler.cpp **** }
  12:src/scheduler.cpp **** 
  13:src/scheduler.cpp **** void *Scheduler::operator new(Scheduler::size_t n) {
  14:src/scheduler.cpp ****     return __mem_alloc(n);
  15:src/scheduler.cpp **** }
  16:src/scheduler.cpp **** 
  17:src/scheduler.cpp **** void *Scheduler::operator new[](Scheduler::size_t n) {
  18:src/scheduler.cpp ****     return __mem_alloc(n);
  19:src/scheduler.cpp **** }
  20:src/scheduler.cpp **** 
  21:src/scheduler.cpp **** void Scheduler::operator delete(void *p) noexcept {
  22:src/scheduler.cpp ****     __mem_free(p);
  23:src/scheduler.cpp **** }
  24:src/scheduler.cpp **** 
  25:src/scheduler.cpp **** void Scheduler::operator delete[](void *p) noexcept {
  26:src/scheduler.cpp ****     __mem_free(p);
  27:src/scheduler.cpp **** }
  11              		.loc 1 27 1
  12              		.cfi_startproc
  13              	.LVL0:
  14 0000 130101FF 		addi	sp,sp,-16
  15              		.cfi_def_cfa_offset 16
  16 0004 23348100 		sd	s0,8(sp)
  17              		.cfi_offset 8, -8
  18 0008 13040101 		addi	s0,sp,16
  19              		.cfi_def_cfa 8, 0
  20              		.loc 1 27 1 is_stmt 0
  21 000c 93071000 		li	a5,1
  22 0010 6308F500 		beq	a0,a5,.L4
  23              	.L1:
  24 0014 03348100 		ld	s0,8(sp)
  25              		.cfi_remember_state
  26              		.cfi_restore 8
  27              		.cfi_def_cfa 2, 16
  28 0018 13010101 		addi	sp,sp,16
  29              		.cfi_def_cfa_offset 0
  30 001c 67800000 		jr	ra
  31              	.L4:
GAS LISTING /tmp/ccomj4KC.s 			page 2


  32              		.cfi_restore_state
  33              		.loc 1 27 1 discriminator 1
  34 0020 B7070100 		li	a5,65536
  35 0024 9387F7FF 		addi	a5,a5,-1
  36 0028 E396F5FE 		bne	a1,a5,.L1
  37              	.LVL1:
  38              	.LBB15:
  39              	.LBB16:
  40              	.LBB17:
  41              		.file 2 "src/../h/list.hpp"
   1:src/../h/list.hpp **** #ifndef OS1_PROJEKAT_LIST_HPP
   2:src/../h/list.hpp **** #define OS1_PROJEKAT_LIST_HPP
   3:src/../h/list.hpp **** 
   4:src/../h/list.hpp **** #include "../lib/mem.h"
   5:src/../h/list.hpp **** 
   6:src/../h/list.hpp **** template<typename T>
   7:src/../h/list.hpp **** class List {
   8:src/../h/list.hpp **** private:
   9:src/../h/list.hpp ****     struct Elem {
  10:src/../h/list.hpp ****         T *data;
  11:src/../h/list.hpp ****         Elem *next;
  12:src/../h/list.hpp **** 
  13:src/../h/list.hpp ****         Elem(T *data, Elem *next) : data(data), next(next) {}
  14:src/../h/list.hpp ****     };
  15:src/../h/list.hpp **** 
  16:src/../h/list.hpp ****     Elem *head;
  17:src/../h/list.hpp ****     Elem *tail;
  18:src/../h/list.hpp **** 
  19:src/../h/list.hpp **** public:
  20:src/../h/list.hpp ****     List() : head(0), tail(0) {}
  42              		.loc 2 20 29
  43 002c 97070000 		lla	a5,.LANCHOR0
  43      93870700 
  44 0034 23B00700 		sd	zero,0(a5)
  45 0038 23B40700 		sd	zero,8(a5)
  46              	.LVL2:
  47              	.LBE17:
  48              	.LBE16:
  49              	.LBE15:
  50              		.loc 1 27 1
  51 003c 6FF09FFD 		j	.L1
  52              		.cfi_endproc
  53              	.LFE22:
  55              		.align	2
  56              		.globl	_ZN9Scheduler3getEv
  58              	_ZN9Scheduler3getEv:
  59              	.LFB8:
   5:src/scheduler.cpp ****     return readyThreadsQueue.removeFirst();
  60              		.loc 1 5 23 is_stmt 1
  61              		.cfi_startproc
  62 0040 130101FE 		addi	sp,sp,-32
  63              		.cfi_def_cfa_offset 32
  64 0044 233C1100 		sd	ra,24(sp)
  65 0048 23388100 		sd	s0,16(sp)
  66 004c 23349100 		sd	s1,8(sp)
  67              		.cfi_offset 1, -8
  68              		.cfi_offset 8, -16
GAS LISTING /tmp/ccomj4KC.s 			page 3


  69              		.cfi_offset 9, -24
  70 0050 13040102 		addi	s0,sp,32
  71              		.cfi_def_cfa 8, 0
   6:src/scheduler.cpp **** }
  72              		.loc 1 6 5
  73              	.LVL3:
  74              	.LBB18:
  75              	.LBB19:
  21:src/../h/list.hpp **** 
  22:src/../h/list.hpp ****     List(const List<T> &) = delete;
  23:src/../h/list.hpp **** 
  24:src/../h/list.hpp ****     List<T> &operator=(const List<T> &) = delete;
  25:src/../h/list.hpp **** 
  26:src/../h/list.hpp ****     void addFirst(T *data) {
  27:src/../h/list.hpp ****         Elem *elem = new Elem(data, head);
  28:src/../h/list.hpp ****         //Elem *elem = (Elem*) __mem_alloc(sizeof (Elem(data,head)));
  29:src/../h/list.hpp ****         head = elem;
  30:src/../h/list.hpp ****         if (!tail) { tail = head; }
  31:src/../h/list.hpp ****     }
  32:src/../h/list.hpp **** 
  33:src/../h/list.hpp ****     void addLast(T *data) {
  34:src/../h/list.hpp ****         Elem *elem = new Elem(data, 0);
  35:src/../h/list.hpp ****         //Elem *elem = (Elem*)__mem_alloc(sizeof (Elem(data, 0)));
  36:src/../h/list.hpp ****         if (tail) {
  37:src/../h/list.hpp ****             tail->next = elem;
  38:src/../h/list.hpp ****             tail = elem;
  39:src/../h/list.hpp ****         } else {
  40:src/../h/list.hpp ****             head = tail = elem;
  41:src/../h/list.hpp ****         }
  42:src/../h/list.hpp ****     }
  43:src/../h/list.hpp **** 
  44:src/../h/list.hpp ****     T *removeFirst() {
  45:src/../h/list.hpp ****         if (!head) { return 0; }
  76              		.loc 2 45 14 is_stmt 0
  77 0054 17050000 		ld	a0,.LANCHOR0
  77      03350500 
  78              		.loc 2 45 9
  79 005c 63020504 		beqz	a0,.L8
  80              	.LVL4:
  46:src/../h/list.hpp ****         Elem *elem = head;
  47:src/../h/list.hpp ****         head = head->next;
  81              		.loc 2 47 22
  82 0060 83378500 		ld	a5,8(a0)
  83              		.loc 2 47 9
  84 0064 17070000 		sd	a5,.LANCHOR0,a4
  84      2330F700 
  48:src/../h/list.hpp ****         if (!head) { tail = 0; }
  85              		.loc 2 48 9
  86 006c 63840702 		beqz	a5,.L10
  87              	.L7:
  49:src/../h/list.hpp **** 
  50:src/../h/list.hpp ****         T *ret = elem->data;
  88              		.loc 2 50 12
  89 0070 83340500 		ld	s1,0(a0)
  90              	.LVL5:
  51:src/../h/list.hpp ****         delete elem;
  91              		.loc 2 51 9
GAS LISTING /tmp/ccomj4KC.s 			page 4


  92 0074 97000000 		call	_ZdlPv@plt
  92      E7800000 
  93              	.LVL6:
  94              	.L5:
  95              	.LBE19:
  96              	.LBE18:
   7:src/scheduler.cpp **** 
  97              		.loc 1 7 1
  98 007c 13850400 		mv	a0,s1
  99 0080 83308101 		ld	ra,24(sp)
 100              		.cfi_remember_state
 101              		.cfi_restore 1
 102 0084 03340101 		ld	s0,16(sp)
 103              		.cfi_restore 8
 104              		.cfi_def_cfa 2, 32
 105 0088 83348100 		ld	s1,8(sp)
 106              		.cfi_restore 9
 107 008c 13010102 		addi	sp,sp,32
 108              		.cfi_def_cfa_offset 0
 109 0090 67800000 		jr	ra
 110              	.LVL7:
 111              	.L10:
 112              		.cfi_restore_state
 113              	.LBB21:
 114              	.LBB20:
  48:src/../h/list.hpp **** 
 115              		.loc 2 48 22
 116 0094 97070000 		sd	zero,.LANCHOR0+8,a5
 116      23B00700 
 117 009c 6FF05FFD 		j	.L7
 118              	.LVL8:
 119              	.L8:
  45:src/../h/list.hpp ****         Elem *elem = head;
 120              		.loc 2 45 29
 121 00a0 93040500 		mv	s1,a0
 122              	.LVL9:
 123              	.LBE20:
 124              	.LBE21:
   6:src/scheduler.cpp **** }
 125              		.loc 1 6 42
 126 00a4 6FF09FFD 		j	.L5
 127              		.cfi_endproc
 128              	.LFE8:
 130              		.align	2
 131              		.globl	_ZN9Scheduler3putEP3PCB
 133              	_ZN9Scheduler3putEP3PCB:
 134              	.LFB9:
   9:src/scheduler.cpp ****     readyThreadsQueue.addLast(thread);
 135              		.loc 1 9 34 is_stmt 1
 136              		.cfi_startproc
 137              	.LVL10:
 138 00a8 130101FE 		addi	sp,sp,-32
 139              		.cfi_def_cfa_offset 32
 140 00ac 233C1100 		sd	ra,24(sp)
 141 00b0 23388100 		sd	s0,16(sp)
 142 00b4 23349100 		sd	s1,8(sp)
 143              		.cfi_offset 1, -8
GAS LISTING /tmp/ccomj4KC.s 			page 5


 144              		.cfi_offset 8, -16
 145              		.cfi_offset 9, -24
 146 00b8 13040102 		addi	s0,sp,32
 147              		.cfi_def_cfa 8, 0
 148 00bc 93040500 		mv	s1,a0
  10:src/scheduler.cpp **** }
 149              		.loc 1 10 5
 150              	.LVL11:
 151              	.LBB22:
 152              	.LBB23:
  34:src/../h/list.hpp ****         //Elem *elem = (Elem*)__mem_alloc(sizeof (Elem(data, 0)));
 153              		.loc 2 34 22 is_stmt 0
 154 00c0 13050001 		li	a0,16
 155              	.LVL12:
 156 00c4 97000000 		call	_Znwm@plt
 156      E7800000 
 157              	.LVL13:
 158              	.LBB24:
 159              	.LBB25:
  13:src/../h/list.hpp ****     };
 160              		.loc 2 13 58
 161 00cc 23309500 		sd	s1,0(a0)
 162 00d0 23340500 		sd	zero,8(a0)
 163              	.LVL14:
 164              	.LBE25:
 165              	.LBE24:
  36:src/../h/list.hpp ****             tail->next = elem;
 166              		.loc 2 36 13
 167 00d4 97070000 		ld	a5,.LANCHOR0+8
 167      83B70700 
  36:src/../h/list.hpp ****             tail->next = elem;
 168              		.loc 2 36 9
 169 00dc 63820702 		beqz	a5,.L12
  37:src/../h/list.hpp ****             tail = elem;
 170              		.loc 2 37 13
 171 00e0 23B4A700 		sd	a0,8(a5)
  38:src/../h/list.hpp ****         } else {
 172              		.loc 2 38 13
 173 00e4 97070000 		sd	a0,.LANCHOR0+8,a5
 173      23B0A700 
 174              	.LVL15:
 175              	.L11:
 176              	.LBE23:
 177              	.LBE22:
  11:src/scheduler.cpp **** 
 178              		.loc 1 11 1
 179 00ec 83308101 		ld	ra,24(sp)
 180              		.cfi_remember_state
 181              		.cfi_restore 1
 182 00f0 03340101 		ld	s0,16(sp)
 183              		.cfi_restore 8
 184              		.cfi_def_cfa 2, 32
 185 00f4 83348100 		ld	s1,8(sp)
 186              		.cfi_restore 9
 187              	.LVL16:
 188 00f8 13010102 		addi	sp,sp,32
 189              		.cfi_def_cfa_offset 0
GAS LISTING /tmp/ccomj4KC.s 			page 6


 190 00fc 67800000 		jr	ra
 191              	.LVL17:
 192              	.L12:
 193              		.cfi_restore_state
 194              	.LBB27:
 195              	.LBB26:
  40:src/../h/list.hpp ****         }
 196              		.loc 2 40 13
 197 0100 97070000 		lla	a5,.LANCHOR0
 197      93870700 
 198 0108 23B4A700 		sd	a0,8(a5)
 199 010c 23B0A700 		sd	a0,0(a5)
 200              	.LVL18:
 201              	.LBE26:
 202              	.LBE27:
  11:src/scheduler.cpp **** 
 203              		.loc 1 11 1
 204 0110 6FF0DFFD 		j	.L11
 205              		.cfi_endproc
 206              	.LFE9:
 208              		.align	2
 209              		.globl	_ZN9SchedulernwEm
 211              	_ZN9SchedulernwEm:
 212              	.LFB10:
  13:src/scheduler.cpp ****     return __mem_alloc(n);
 213              		.loc 1 13 52 is_stmt 1
 214              		.cfi_startproc
 215              	.LVL19:
 216 0114 130101FF 		addi	sp,sp,-16
 217              		.cfi_def_cfa_offset 16
 218 0118 23341100 		sd	ra,8(sp)
 219 011c 23308100 		sd	s0,0(sp)
 220              		.cfi_offset 1, -8
 221              		.cfi_offset 8, -16
 222 0120 13040101 		addi	s0,sp,16
 223              		.cfi_def_cfa 8, 0
  14:src/scheduler.cpp **** }
 224              		.loc 1 14 5
  14:src/scheduler.cpp **** }
 225              		.loc 1 14 23 is_stmt 0
 226 0124 97000000 		call	__mem_alloc@plt
 226      E7800000 
 227              	.LVL20:
  15:src/scheduler.cpp **** 
 228              		.loc 1 15 1
 229 012c 83308100 		ld	ra,8(sp)
 230              		.cfi_restore 1
 231 0130 03340100 		ld	s0,0(sp)
 232              		.cfi_restore 8
 233              		.cfi_def_cfa 2, 16
 234 0134 13010101 		addi	sp,sp,16
 235              		.cfi_def_cfa_offset 0
 236 0138 67800000 		jr	ra
 237              		.cfi_endproc
 238              	.LFE10:
 240              		.align	2
 241              		.globl	_ZN9SchedulernaEm
GAS LISTING /tmp/ccomj4KC.s 			page 7


 243              	_ZN9SchedulernaEm:
 244              	.LFB11:
  17:src/scheduler.cpp ****     return __mem_alloc(n);
 245              		.loc 1 17 54 is_stmt 1
 246              		.cfi_startproc
 247              	.LVL21:
 248 013c 130101FF 		addi	sp,sp,-16
 249              		.cfi_def_cfa_offset 16
 250 0140 23341100 		sd	ra,8(sp)
 251 0144 23308100 		sd	s0,0(sp)
 252              		.cfi_offset 1, -8
 253              		.cfi_offset 8, -16
 254 0148 13040101 		addi	s0,sp,16
 255              		.cfi_def_cfa 8, 0
  18:src/scheduler.cpp **** }
 256              		.loc 1 18 5
  18:src/scheduler.cpp **** }
 257              		.loc 1 18 23 is_stmt 0
 258 014c 97000000 		call	__mem_alloc@plt
 258      E7800000 
 259              	.LVL22:
  19:src/scheduler.cpp **** 
 260              		.loc 1 19 1
 261 0154 83308100 		ld	ra,8(sp)
 262              		.cfi_restore 1
 263 0158 03340100 		ld	s0,0(sp)
 264              		.cfi_restore 8
 265              		.cfi_def_cfa 2, 16
 266 015c 13010101 		addi	sp,sp,16
 267              		.cfi_def_cfa_offset 0
 268 0160 67800000 		jr	ra
 269              		.cfi_endproc
 270              	.LFE11:
 272              		.align	2
 273              		.globl	_ZN9SchedulerdlEPv
 275              	_ZN9SchedulerdlEPv:
 276              	.LFB12:
  21:src/scheduler.cpp ****     __mem_free(p);
 277              		.loc 1 21 51 is_stmt 1
 278              		.cfi_startproc
 279              		.cfi_personality 0x9b,DW.ref.__gxx_personality_v0
 280              		.cfi_lsda 0x1b,.LLSDA12
 281              	.LVL23:
 282 0164 130101FF 		addi	sp,sp,-16
 283              		.cfi_def_cfa_offset 16
 284 0168 23341100 		sd	ra,8(sp)
 285 016c 23308100 		sd	s0,0(sp)
 286              		.cfi_offset 1, -8
 287              		.cfi_offset 8, -16
 288 0170 13040101 		addi	s0,sp,16
 289              		.cfi_def_cfa 8, 0
  22:src/scheduler.cpp **** }
 290              		.loc 1 22 5
  22:src/scheduler.cpp **** }
 291              		.loc 1 22 15 is_stmt 0
 292 0174 97000000 		call	__mem_free@plt
 292      E7800000 
GAS LISTING /tmp/ccomj4KC.s 			page 8


 293              	.LVL24:
  23:src/scheduler.cpp **** 
 294              		.loc 1 23 1
 295 017c 83308100 		ld	ra,8(sp)
 296              		.cfi_restore 1
 297 0180 03340100 		ld	s0,0(sp)
 298              		.cfi_restore 8
 299              		.cfi_def_cfa 2, 16
 300 0184 13010101 		addi	sp,sp,16
 301              		.cfi_def_cfa_offset 0
 302 0188 67800000 		jr	ra
 303              		.cfi_endproc
 304              	.LFE12:
 305              		.globl	__gxx_personality_v0
 306              		.section	.gcc_except_table,"a",@progbits
 307              	.LLSDA12:
 308 0000 FF       		.byte	0xff
 309 0001 FF       		.byte	0xff
 310 0002 03       		.byte	0x3
 311 0003 00       		.byte	0
 312              		.text
 314              		.align	2
 315              		.globl	_ZN9SchedulerdaEPv
 317              	_ZN9SchedulerdaEPv:
 318              	.LFB13:
  25:src/scheduler.cpp ****     __mem_free(p);
 319              		.loc 1 25 53 is_stmt 1
 320              		.cfi_startproc
 321              		.cfi_personality 0x9b,DW.ref.__gxx_personality_v0
 322              		.cfi_lsda 0x1b,.LLSDA13
 323              	.LVL25:
 324 018c 130101FF 		addi	sp,sp,-16
 325              		.cfi_def_cfa_offset 16
 326 0190 23341100 		sd	ra,8(sp)
 327 0194 23308100 		sd	s0,0(sp)
 328              		.cfi_offset 1, -8
 329              		.cfi_offset 8, -16
 330 0198 13040101 		addi	s0,sp,16
 331              		.cfi_def_cfa 8, 0
  26:src/scheduler.cpp **** }
 332              		.loc 1 26 5
  26:src/scheduler.cpp **** }
 333              		.loc 1 26 15 is_stmt 0
 334 019c 97000000 		call	__mem_free@plt
 334      E7800000 
 335              	.LVL26:
 336              		.loc 1 27 1
 337 01a4 83308100 		ld	ra,8(sp)
 338              		.cfi_restore 1
 339 01a8 03340100 		ld	s0,0(sp)
 340              		.cfi_restore 8
 341              		.cfi_def_cfa 2, 16
 342 01ac 13010101 		addi	sp,sp,16
 343              		.cfi_def_cfa_offset 0
 344 01b0 67800000 		jr	ra
 345              		.cfi_endproc
 346              	.LFE13:
GAS LISTING /tmp/ccomj4KC.s 			page 9


 347              		.section	.gcc_except_table
 348              	.LLSDA13:
 349 0004 FF       		.byte	0xff
 350 0005 FF       		.byte	0xff
 351 0006 03       		.byte	0x3
 352 0007 00       		.byte	0
 353              		.text
 355              		.align	2
 357              	_GLOBAL__sub_I__ZN9Scheduler17readyThreadsQueueE:
 358              	.LFB23:
 359              		.loc 1 27 1 is_stmt 1
 360              		.cfi_startproc
 361 01b4 130101FF 		addi	sp,sp,-16
 362              		.cfi_def_cfa_offset 16
 363 01b8 23341100 		sd	ra,8(sp)
 364 01bc 23308100 		sd	s0,0(sp)
 365              		.cfi_offset 1, -8
 366              		.cfi_offset 8, -16
 367 01c0 13040101 		addi	s0,sp,16
 368              		.cfi_def_cfa 8, 0
 369              		.loc 1 27 1 is_stmt 0
 370 01c4 B7050100 		li	a1,65536
 371 01c8 9385F5FF 		addi	a1,a1,-1
 372 01cc 13051000 		li	a0,1
 373 01d0 97000000 		call	_Z41__static_initialization_and_destruction_0ii
 373      E7800000 
 374              	.LVL27:
 375 01d8 83308100 		ld	ra,8(sp)
 376              		.cfi_restore 1
 377 01dc 03340100 		ld	s0,0(sp)
 378              		.cfi_restore 8
 379              		.cfi_def_cfa 2, 16
 380 01e0 13010101 		addi	sp,sp,16
 381              		.cfi_def_cfa_offset 0
 382 01e4 67800000 		jr	ra
 383              		.cfi_endproc
 384              	.LFE23:
 386              		.section	.init_array,"aw"
 387              		.align	3
 388 0000 00000000 		.dword	_GLOBAL__sub_I__ZN9Scheduler17readyThreadsQueueE
 388      00000000 
 389              		.globl	_ZN9Scheduler17readyThreadsQueueE
 390              		.bss
 391              		.align	3
 392              		.set	.LANCHOR0,. + 0
 395              	_ZN9Scheduler17readyThreadsQueueE:
 396 0000 00000000 		.zero	16
 396      00000000 
 396      00000000 
 396      00000000 
 397              		.text
 398              	.Letext0:
 399              		.file 3 "src/../h/../lib/hw.h"
 400              		.file 4 "src/../h/scheduler.hpp"
 401              		.file 5 "src/../h/../lib/mem.h"
 2397              		.align	3
 2400              	DW.ref.__gxx_personality_v0:
GAS LISTING /tmp/ccomj4KC.s 			page 10


 2401 0000 00000000 		.dword	__gxx_personality_v0
 2401      00000000 
 2402              		.ident	"GCC: (Ubuntu 9.4.0-1ubuntu1~20.04) 9.4.0"
 2403              		.section	.note.GNU-stack,"",@progbits
GAS LISTING /tmp/ccomj4KC.s 			page 11


DEFINED SYMBOLS
                            *ABS*:0000000000000000 scheduler.cpp
     /tmp/ccomj4KC.s:8      .text:0000000000000000 _Z41__static_initialization_and_destruction_0ii
     /tmp/ccomj4KC.s:12     .text:0000000000000000 .L0 
     /tmp/ccomj4KC.s:14     .text:0000000000000000 .L0 
     /tmp/ccomj4KC.s:15     .text:0000000000000004 .L0 
     /tmp/ccomj4KC.s:17     .text:0000000000000008 .L0 
     /tmp/ccomj4KC.s:19     .text:000000000000000c .L0 
     /tmp/ccomj4KC.s:21     .text:000000000000000c .L0 
     /tmp/ccomj4KC.s:25     .text:0000000000000018 .L0 
     /tmp/ccomj4KC.s:26     .text:0000000000000018 .L0 
     /tmp/ccomj4KC.s:27     .text:0000000000000018 .L0 
     /tmp/ccomj4KC.s:29     .text:000000000000001c .L0 
     /tmp/ccomj4KC.s:32     .text:0000000000000020 .L0 
     /tmp/ccomj4KC.s:34     .text:0000000000000020 .L0 
     /tmp/ccomj4KC.s:43     .text:000000000000002c .L0 
     /tmp/ccomj4KC.s:51     .text:000000000000003c .L0 
     /tmp/ccomj4KC.s:52     .text:0000000000000040 .L0 
     /tmp/ccomj4KC.s:58     .text:0000000000000040 _ZN9Scheduler3getEv
     /tmp/ccomj4KC.s:61     .text:0000000000000040 .L0 
     /tmp/ccomj4KC.s:62     .text:0000000000000040 .L0 
     /tmp/ccomj4KC.s:63     .text:0000000000000044 .L0 
     /tmp/ccomj4KC.s:67     .text:0000000000000050 .L0 
     /tmp/ccomj4KC.s:68     .text:0000000000000050 .L0 
     /tmp/ccomj4KC.s:69     .text:0000000000000050 .L0 
     /tmp/ccomj4KC.s:71     .text:0000000000000054 .L0 
     /tmp/ccomj4KC.s:76     .text:0000000000000054 .L0 
     /tmp/ccomj4KC.s:77     .text:0000000000000054 .L0 
     /tmp/ccomj4KC.s:79     .text:000000000000005c .L0 
     /tmp/ccomj4KC.s:82     .text:0000000000000060 .L0 
     /tmp/ccomj4KC.s:84     .text:0000000000000064 .L0 
     /tmp/ccomj4KC.s:86     .text:000000000000006c .L0 
     /tmp/ccomj4KC.s:89     .text:0000000000000070 .L0 
     /tmp/ccomj4KC.s:92     .text:0000000000000074 .L0 
     /tmp/ccomj4KC.s:98     .text:000000000000007c .L0 
     /tmp/ccomj4KC.s:100    .text:0000000000000084 .L0 
     /tmp/ccomj4KC.s:101    .text:0000000000000084 .L0 
     /tmp/ccomj4KC.s:103    .text:0000000000000088 .L0 
     /tmp/ccomj4KC.s:104    .text:0000000000000088 .L0 
     /tmp/ccomj4KC.s:106    .text:000000000000008c .L0 
     /tmp/ccomj4KC.s:108    .text:0000000000000090 .L0 
     /tmp/ccomj4KC.s:112    .text:0000000000000094 .L0 
     /tmp/ccomj4KC.s:116    .text:0000000000000094 .L0 
     /tmp/ccomj4KC.s:121    .text:00000000000000a0 .L0 
     /tmp/ccomj4KC.s:126    .text:00000000000000a4 .L0 
     /tmp/ccomj4KC.s:127    .text:00000000000000a8 .L0 
     /tmp/ccomj4KC.s:133    .text:00000000000000a8 _ZN9Scheduler3putEP3PCB
     /tmp/ccomj4KC.s:136    .text:00000000000000a8 .L0 
     /tmp/ccomj4KC.s:138    .text:00000000000000a8 .L0 
     /tmp/ccomj4KC.s:139    .text:00000000000000ac .L0 
     /tmp/ccomj4KC.s:143    .text:00000000000000b8 .L0 
     /tmp/ccomj4KC.s:144    .text:00000000000000b8 .L0 
     /tmp/ccomj4KC.s:145    .text:00000000000000b8 .L0 
     /tmp/ccomj4KC.s:147    .text:00000000000000bc .L0 
     /tmp/ccomj4KC.s:153    .text:00000000000000c0 .L0 
     /tmp/ccomj4KC.s:154    .text:00000000000000c0 .L0 
     /tmp/ccomj4KC.s:161    .text:00000000000000cc .L0 
GAS LISTING /tmp/ccomj4KC.s 			page 12


     /tmp/ccomj4KC.s:167    .text:00000000000000d4 .L0 
     /tmp/ccomj4KC.s:169    .text:00000000000000dc .L0 
     /tmp/ccomj4KC.s:171    .text:00000000000000e0 .L0 
     /tmp/ccomj4KC.s:173    .text:00000000000000e4 .L0 
     /tmp/ccomj4KC.s:179    .text:00000000000000ec .L0 
     /tmp/ccomj4KC.s:180    .text:00000000000000f0 .L0 
     /tmp/ccomj4KC.s:181    .text:00000000000000f0 .L0 
     /tmp/ccomj4KC.s:183    .text:00000000000000f4 .L0 
     /tmp/ccomj4KC.s:184    .text:00000000000000f4 .L0 
     /tmp/ccomj4KC.s:186    .text:00000000000000f8 .L0 
     /tmp/ccomj4KC.s:189    .text:00000000000000fc .L0 
     /tmp/ccomj4KC.s:193    .text:0000000000000100 .L0 
     /tmp/ccomj4KC.s:197    .text:0000000000000100 .L0 
     /tmp/ccomj4KC.s:204    .text:0000000000000110 .L0 
     /tmp/ccomj4KC.s:205    .text:0000000000000114 .L0 
     /tmp/ccomj4KC.s:211    .text:0000000000000114 _ZN9SchedulernwEm
     /tmp/ccomj4KC.s:214    .text:0000000000000114 .L0 
     /tmp/ccomj4KC.s:216    .text:0000000000000114 .L0 
     /tmp/ccomj4KC.s:217    .text:0000000000000118 .L0 
     /tmp/ccomj4KC.s:220    .text:0000000000000120 .L0 
     /tmp/ccomj4KC.s:221    .text:0000000000000120 .L0 
     /tmp/ccomj4KC.s:223    .text:0000000000000124 .L0 
     /tmp/ccomj4KC.s:225    .text:0000000000000124 .L0 
     /tmp/ccomj4KC.s:226    .text:0000000000000124 .L0 
     /tmp/ccomj4KC.s:229    .text:000000000000012c .L0 
     /tmp/ccomj4KC.s:230    .text:0000000000000130 .L0 
     /tmp/ccomj4KC.s:232    .text:0000000000000134 .L0 
     /tmp/ccomj4KC.s:233    .text:0000000000000134 .L0 
     /tmp/ccomj4KC.s:235    .text:0000000000000138 .L0 
     /tmp/ccomj4KC.s:237    .text:000000000000013c .L0 
     /tmp/ccomj4KC.s:243    .text:000000000000013c _ZN9SchedulernaEm
     /tmp/ccomj4KC.s:246    .text:000000000000013c .L0 
     /tmp/ccomj4KC.s:248    .text:000000000000013c .L0 
     /tmp/ccomj4KC.s:249    .text:0000000000000140 .L0 
     /tmp/ccomj4KC.s:252    .text:0000000000000148 .L0 
     /tmp/ccomj4KC.s:253    .text:0000000000000148 .L0 
     /tmp/ccomj4KC.s:255    .text:000000000000014c .L0 
     /tmp/ccomj4KC.s:257    .text:000000000000014c .L0 
     /tmp/ccomj4KC.s:258    .text:000000000000014c .L0 
     /tmp/ccomj4KC.s:261    .text:0000000000000154 .L0 
     /tmp/ccomj4KC.s:262    .text:0000000000000158 .L0 
     /tmp/ccomj4KC.s:264    .text:000000000000015c .L0 
     /tmp/ccomj4KC.s:265    .text:000000000000015c .L0 
     /tmp/ccomj4KC.s:267    .text:0000000000000160 .L0 
     /tmp/ccomj4KC.s:269    .text:0000000000000164 .L0 
     /tmp/ccomj4KC.s:275    .text:0000000000000164 _ZN9SchedulerdlEPv
     /tmp/ccomj4KC.s:278    .text:0000000000000164 .L0 
     /tmp/ccomj4KC.s:2400   .data.rel.local.DW.ref.__gxx_personality_v0:0000000000000000 DW.ref.__gxx_personality_v0
     /tmp/ccomj4KC.s:282    .text:0000000000000164 .L0 
     /tmp/ccomj4KC.s:283    .text:0000000000000168 .L0 
     /tmp/ccomj4KC.s:286    .text:0000000000000170 .L0 
     /tmp/ccomj4KC.s:287    .text:0000000000000170 .L0 
     /tmp/ccomj4KC.s:289    .text:0000000000000174 .L0 
     /tmp/ccomj4KC.s:291    .text:0000000000000174 .L0 
     /tmp/ccomj4KC.s:292    .text:0000000000000174 .L0 
     /tmp/ccomj4KC.s:295    .text:000000000000017c .L0 
     /tmp/ccomj4KC.s:296    .text:0000000000000180 .L0 
GAS LISTING /tmp/ccomj4KC.s 			page 13


     /tmp/ccomj4KC.s:298    .text:0000000000000184 .L0 
     /tmp/ccomj4KC.s:299    .text:0000000000000184 .L0 
     /tmp/ccomj4KC.s:301    .text:0000000000000188 .L0 
     /tmp/ccomj4KC.s:303    .text:000000000000018c .L0 
     /tmp/ccomj4KC.s:317    .text:000000000000018c _ZN9SchedulerdaEPv
     /tmp/ccomj4KC.s:320    .text:000000000000018c .L0 
     /tmp/ccomj4KC.s:324    .text:000000000000018c .L0 
     /tmp/ccomj4KC.s:325    .text:0000000000000190 .L0 
     /tmp/ccomj4KC.s:328    .text:0000000000000198 .L0 
     /tmp/ccomj4KC.s:329    .text:0000000000000198 .L0 
     /tmp/ccomj4KC.s:331    .text:000000000000019c .L0 
     /tmp/ccomj4KC.s:333    .text:000000000000019c .L0 
     /tmp/ccomj4KC.s:334    .text:000000000000019c .L0 
     /tmp/ccomj4KC.s:337    .text:00000000000001a4 .L0 
     /tmp/ccomj4KC.s:338    .text:00000000000001a8 .L0 
     /tmp/ccomj4KC.s:340    .text:00000000000001ac .L0 
     /tmp/ccomj4KC.s:341    .text:00000000000001ac .L0 
     /tmp/ccomj4KC.s:343    .text:00000000000001b0 .L0 
     /tmp/ccomj4KC.s:345    .text:00000000000001b4 .L0 
     /tmp/ccomj4KC.s:357    .text:00000000000001b4 _GLOBAL__sub_I__ZN9Scheduler17readyThreadsQueueE
     /tmp/ccomj4KC.s:360    .text:00000000000001b4 .L0 
     /tmp/ccomj4KC.s:361    .text:00000000000001b4 .L0 
     /tmp/ccomj4KC.s:362    .text:00000000000001b8 .L0 
     /tmp/ccomj4KC.s:365    .text:00000000000001c0 .L0 
     /tmp/ccomj4KC.s:366    .text:00000000000001c0 .L0 
     /tmp/ccomj4KC.s:368    .text:00000000000001c4 .L0 
     /tmp/ccomj4KC.s:370    .text:00000000000001c4 .L0 
     /tmp/ccomj4KC.s:376    .text:00000000000001dc .L0 
     /tmp/ccomj4KC.s:378    .text:00000000000001e0 .L0 
     /tmp/ccomj4KC.s:379    .text:00000000000001e0 .L0 
     /tmp/ccomj4KC.s:381    .text:00000000000001e4 .L0 
     /tmp/ccomj4KC.s:383    .text:00000000000001e8 .L0 
     /tmp/ccomj4KC.s:395    .bss:0000000000000000 _ZN9Scheduler17readyThreadsQueueE
     /tmp/ccomj4KC.s:392    .bss:0000000000000000 .LANCHOR0
     /tmp/ccomj4KC.s:402    .text:00000000000001e8 .L0 
     /tmp/ccomj4KC.s:43     .text:000000000000002c .L0 
     /tmp/ccomj4KC.s:77     .text:0000000000000054 .L0 
     /tmp/ccomj4KC.s:84     .text:0000000000000064 .L0 
     /tmp/ccomj4KC.s:116    .text:0000000000000094 .L0 
     /tmp/ccomj4KC.s:167    .text:00000000000000d4 .L0 
     /tmp/ccomj4KC.s:173    .text:00000000000000e4 .L0 
     /tmp/ccomj4KC.s:197    .text:0000000000000100 .L0 
     /tmp/ccomj4KC.s:31     .text:0000000000000020 .L4
     /tmp/ccomj4KC.s:23     .text:0000000000000014 .L1
     /tmp/ccomj4KC.s:119    .text:00000000000000a0 .L8
     /tmp/ccomj4KC.s:111    .text:0000000000000094 .L10
     /tmp/ccomj4KC.s:87     .text:0000000000000070 .L7
     /tmp/ccomj4KC.s:94     .text:000000000000007c .L5
     /tmp/ccomj4KC.s:192    .text:0000000000000100 .L12
     /tmp/ccomj4KC.s:175    .text:00000000000000ec .L11
     /tmp/ccomj4KC.s:1212   .debug_abbrev:0000000000000000 .Ldebug_abbrev0
     /tmp/ccomj4KC.s:2324   .debug_str:000000000000024a .LASF61
     /tmp/ccomj4KC.s:2306   .debug_str:00000000000001cd .LASF62
     /tmp/ccomj4KC.s:2266   .debug_str:0000000000000068 .LASF63
     /tmp/ccomj4KC.s:5      .text:0000000000000000 .Ltext0
     /tmp/ccomj4KC.s:398    .text:00000000000001e8 .Letext0
     /tmp/ccomj4KC.s:2252   .debug_line:0000000000000000 .Ldebug_line0
GAS LISTING /tmp/ccomj4KC.s 			page 14


     /tmp/ccomj4KC.s:2334   .debug_str:0000000000000343 .LASF0
     /tmp/ccomj4KC.s:2310   .debug_str:00000000000001f1 .LASF1
     /tmp/ccomj4KC.s:2302   .debug_str:000000000000019d .LASF2
     /tmp/ccomj4KC.s:2268   .debug_str:0000000000000088 .LASF4
     /tmp/ccomj4KC.s:2308   .debug_str:00000000000001df .LASF3
     /tmp/ccomj4KC.s:2258   .debug_str:000000000000001e .LASF5
     /tmp/ccomj4KC.s:2254   .debug_str:0000000000000000 .LASF6
     /tmp/ccomj4KC.s:2292   .debug_str:000000000000013d .LASF7
     /tmp/ccomj4KC.s:2348   .debug_str:00000000000003a2 .LASF8
     /tmp/ccomj4KC.s:2284   .debug_str:00000000000000fb .LASF9
     /tmp/ccomj4KC.s:2392   .debug_str:0000000000000535 .LASF10
     /tmp/ccomj4KC.s:2298   .debug_str:0000000000000172 .LASF11
     /tmp/ccomj4KC.s:2374   .debug_str:0000000000000491 .LASF12
     /tmp/ccomj4KC.s:2354   .debug_str:00000000000003cd .LASF13
     /tmp/ccomj4KC.s:2314   .debug_str:000000000000020b .LASF14
     /tmp/ccomj4KC.s:2278   .debug_str:00000000000000c5 .LASF15
     /tmp/ccomj4KC.s:2350   .debug_str:00000000000003b2 .LASF16
     /tmp/ccomj4KC.s:2290   .debug_str:0000000000000133 .LASF25
     /tmp/ccomj4KC.s:2382   .debug_str:00000000000004cf .LASF64
     /tmp/ccomj4KC.s:2378   .debug_str:00000000000004ab .LASF17
     /tmp/ccomj4KC.s:2364   .debug_str:000000000000041f .LASF19
     /tmp/ccomj4KC.s:2362   .debug_str:000000000000040f .LASF18
     /tmp/ccomj4KC.s:2276   .debug_str:00000000000000b3 .LASF20
     /tmp/ccomj4KC.s:2338   .debug_str:0000000000000355 .LASF21
     /tmp/ccomj4KC.s:2360   .debug_str:00000000000003fc .LASF23
     /tmp/ccomj4KC.s:2390   .debug_str:0000000000000522 .LASF22
     /tmp/ccomj4KC.s:2318   .debug_str:0000000000000221 .LASF24
     /tmp/ccomj4KC.s:2264   .debug_str:0000000000000054 .LASF65
     /tmp/ccomj4KC.s:2358   .debug_str:00000000000003e4 .LASF66
     /tmp/ccomj4KC.s:2316   .debug_str:0000000000000217 .LASF26
     /tmp/ccomj4KC.s:2352   .debug_str:00000000000003c8 .LASF29
     /tmp/ccomj4KC.s:2296   .debug_str:000000000000016d .LASF27
     /tmp/ccomj4KC.s:2260   .debug_str:0000000000000025 .LASF28
     /tmp/ccomj4KC.s:2288   .debug_str:0000000000000114 .LASF30
     /tmp/ccomj4KC.s:2328   .debug_str:0000000000000316 .LASF31
     /tmp/ccomj4KC.s:2368   .debug_str:0000000000000448 .LASF32
     /tmp/ccomj4KC.s:2282   .debug_str:00000000000000f6 .LASF33
     /tmp/ccomj4KC.s:2370   .debug_str:000000000000044d .LASF35
     /tmp/ccomj4KC.s:2366   .debug_str:0000000000000431 .LASF40
     /tmp/ccomj4KC.s:2376   .debug_str:00000000000004a1 .LASF67
     /tmp/ccomj4KC.s:2380   .debug_str:00000000000004b8 .LASF68
     /tmp/ccomj4KC.s:2332   .debug_str:000000000000033a .LASF34
     /tmp/ccomj4KC.s:2294   .debug_str:0000000000000150 .LASF36
     /tmp/ccomj4KC.s:2326   .debug_str:000000000000030e .LASF37
     /tmp/ccomj4KC.s:2300   .debug_str:0000000000000181 .LASF38
     /tmp/ccomj4KC.s:2274   .debug_str:00000000000000a7 .LASF39
     /tmp/ccomj4KC.s:2386   .debug_str:00000000000004fe .LASF41
     /tmp/ccomj4KC.s:2322   .debug_str:0000000000000240 .LASF42
     /tmp/ccomj4KC.s:2280   .debug_str:00000000000000db .LASF43
     /tmp/ccomj4KC.s:2286   .debug_str:0000000000000109 .LASF44
     /tmp/ccomj4KC.s:2384   .debug_str:00000000000004e1 .LASF45
     /tmp/ccomj4KC.s:2344   .debug_str:000000000000037f .LASF46
     /tmp/ccomj4KC.s:2346   .debug_str:0000000000000388 .LASF47
     /tmp/ccomj4KC.s:2304   .debug_str:00000000000001ab .LASF69
     /tmp/ccomj4KC.s:2372   .debug_str:0000000000000460 .LASF48
     /tmp/ccomj4KC.s:358    .text:00000000000001b4 .LFB23
     /tmp/ccomj4KC.s:384    .text:00000000000001e8 .LFE23
GAS LISTING /tmp/ccomj4KC.s 			page 15


     /tmp/ccomj4KC.s:374    .text:00000000000001d8 .LVL27
     /tmp/ccomj4KC.s:2262   .debug_str:000000000000002a .LASF49
     /tmp/ccomj4KC.s:9      .text:0000000000000000 .LFB22
     /tmp/ccomj4KC.s:53     .text:0000000000000040 .LFE22
     /tmp/ccomj4KC.s:2340   .debug_str:0000000000000365 .LASF50
     /tmp/ccomj4KC.s:2256   .debug_str:0000000000000013 .LASF51
     /tmp/ccomj4KC.s:38     .text:000000000000002c .LBB15
     /tmp/ccomj4KC.s:49     .text:000000000000003c .LBE15
     /tmp/ccomj4KC.s:2053   .debug_loc:0000000000000000 .LLST0
     /tmp/ccomj4KC.s:2270   .debug_str:000000000000008f .LASF52
     /tmp/ccomj4KC.s:2330   .debug_str:000000000000031b .LASF54
     /tmp/ccomj4KC.s:2336   .debug_str:0000000000000350 .LASF53
     /tmp/ccomj4KC.s:2272   .debug_str:0000000000000094 .LASF55
     /tmp/ccomj4KC.s:318    .text:000000000000018c .LFB13
     /tmp/ccomj4KC.s:346    .text:00000000000001b4 .LFE13
     /tmp/ccomj4KC.s:2062   .debug_loc:000000000000002c .LLST13
     /tmp/ccomj4KC.s:335    .text:00000000000001a4 .LVL26
     /tmp/ccomj4KC.s:276    .text:0000000000000164 .LFB12
     /tmp/ccomj4KC.s:304    .text:000000000000018c .LFE12
     /tmp/ccomj4KC.s:2076   .debug_loc:0000000000000065 .LLST12
     /tmp/ccomj4KC.s:293    .text:000000000000017c .LVL24
     /tmp/ccomj4KC.s:244    .text:000000000000013c .LFB11
     /tmp/ccomj4KC.s:270    .text:0000000000000164 .LFE11
     /tmp/ccomj4KC.s:2090   .debug_loc:000000000000009e .LLST11
     /tmp/ccomj4KC.s:259    .text:0000000000000154 .LVL22
     /tmp/ccomj4KC.s:212    .text:0000000000000114 .LFB10
     /tmp/ccomj4KC.s:238    .text:000000000000013c .LFE10
     /tmp/ccomj4KC.s:2104   .debug_loc:00000000000000d7 .LLST10
     /tmp/ccomj4KC.s:227    .text:000000000000012c .LVL20
     /tmp/ccomj4KC.s:134    .text:00000000000000a8 .LFB9
     /tmp/ccomj4KC.s:206    .text:0000000000000114 .LFE9
     /tmp/ccomj4KC.s:2312   .debug_str:0000000000000204 .LASF56
     /tmp/ccomj4KC.s:2118   .debug_loc:0000000000000110 .LLST4
     /tmp/ccomj4KC.s:151    .text:00000000000000c0 .LBB22
     /tmp/ccomj4KC.s:2238   .debug_ranges:0000000000000000 .Ldebug_ranges0
     /tmp/ccomj4KC.s:2140   .debug_loc:000000000000016f .LLST5
     /tmp/ccomj4KC.s:2155   .debug_loc:00000000000001b8 .LLST6
     /tmp/ccomj4KC.s:158    .text:00000000000000cc .LBB24
     /tmp/ccomj4KC.s:165    .text:00000000000000d4 .LBE24
     /tmp/ccomj4KC.s:2170   .debug_loc:0000000000000200 .LLST7
     /tmp/ccomj4KC.s:2178   .debug_loc:0000000000000224 .LLST8
     /tmp/ccomj4KC.s:2185   .debug_loc:0000000000000247 .LLST9
     /tmp/ccomj4KC.s:157    .text:00000000000000cc .LVL13
     /tmp/ccomj4KC.s:59     .text:0000000000000040 .LFB8
     /tmp/ccomj4KC.s:128    .text:00000000000000a8 .LFE8
     /tmp/ccomj4KC.s:74     .text:0000000000000054 .LBB18
     /tmp/ccomj4KC.s:2192   .debug_loc:000000000000026a .LLST1
     /tmp/ccomj4KC.s:2207   .debug_loc:00000000000002b2 .LLST2
     /tmp/ccomj4KC.s:2218   .debug_loc:00000000000002e8 .LLST3
     /tmp/ccomj4KC.s:93     .text:000000000000007c .LVL6
     /tmp/ccomj4KC.s:2342   .debug_str:0000000000000374 .LASF57
     /tmp/ccomj4KC.s:2320   .debug_str:0000000000000234 .LASF58
     /tmp/ccomj4KC.s:2388   .debug_str:000000000000051c .LASF59
     /tmp/ccomj4KC.s:2356   .debug_str:00000000000003dd .LASF60
     /tmp/ccomj4KC.s:37     .text:000000000000002c .LVL1
     /tmp/ccomj4KC.s:46     .text:000000000000003c .LVL2
     /tmp/ccomj4KC.s:323    .text:000000000000018c .LVL25
GAS LISTING /tmp/ccomj4KC.s 			page 16


     /tmp/ccomj4KC.s:281    .text:0000000000000164 .LVL23
     /tmp/ccomj4KC.s:247    .text:000000000000013c .LVL21
     /tmp/ccomj4KC.s:215    .text:0000000000000114 .LVL19
     /tmp/ccomj4KC.s:137    .text:00000000000000a8 .LVL10
     /tmp/ccomj4KC.s:155    .text:00000000000000c4 .LVL12
     /tmp/ccomj4KC.s:187    .text:00000000000000f8 .LVL16
     /tmp/ccomj4KC.s:191    .text:0000000000000100 .LVL17
     /tmp/ccomj4KC.s:150    .text:00000000000000c0 .LVL11
     /tmp/ccomj4KC.s:174    .text:00000000000000ec .LVL15
     /tmp/ccomj4KC.s:200    .text:0000000000000110 .LVL18
     /tmp/ccomj4KC.s:163    .text:00000000000000d4 .LVL14
     /tmp/ccomj4KC.s:73     .text:0000000000000054 .LVL3
     /tmp/ccomj4KC.s:110    .text:0000000000000094 .LVL7
     /tmp/ccomj4KC.s:122    .text:00000000000000a4 .LVL9
     /tmp/ccomj4KC.s:80     .text:0000000000000060 .LVL4
     /tmp/ccomj4KC.s:118    .text:00000000000000a0 .LVL8
     /tmp/ccomj4KC.s:90     .text:0000000000000074 .LVL5
     /tmp/ccomj4KC.s:403    .debug_info:0000000000000000 .Ldebug_info0
     /tmp/ccomj4KC.s:96     .text:000000000000007c .LBE18
     /tmp/ccomj4KC.s:113    .text:0000000000000094 .LBB21
     /tmp/ccomj4KC.s:124    .text:00000000000000a4 .LBE21
     /tmp/ccomj4KC.s:177    .text:00000000000000ec .LBE22
     /tmp/ccomj4KC.s:194    .text:0000000000000100 .LBB27
     /tmp/ccomj4KC.s:202    .text:0000000000000110 .LBE27
     /tmp/ccomj4KC.s:307    .gcc_except_table:0000000000000000 .LLSDA12
     /tmp/ccomj4KC.s:348    .gcc_except_table:0000000000000004 .LLSDA13

UNDEFINED SYMBOLS
_ZdlPv
_Znwm
__mem_alloc
__mem_free
__gxx_personality_v0
