GAS LISTING /tmp/ccjfkP1w.s 			page 1


   1              		.file	"semaphoreK.cpp"
   2              		.option pic
   3              		.option norelax
   4              		.text
   5              	.Ltext0:
   6              		.align	2
   7              		.globl	_ZNK10SemaphoreK6getValEv
   9              	_ZNK10SemaphoreK6getValEv:
  10              	.LFB24:
  11              		.file 1 "src/semaphoreK.cpp"
   1:src/semaphoreK.cpp **** #include "../h/semaphoreK.hpp"
   2:src/semaphoreK.cpp **** #include "../test/printing.hpp"
   3:src/semaphoreK.cpp **** 
   4:src/semaphoreK.cpp **** unsigned int SemaphoreK::getVal() const {
  12              		.loc 1 4 41
  13              		.cfi_startproc
  14              	.LVL0:
  15 0000 130101FF 		addi	sp,sp,-16
  16              		.cfi_def_cfa_offset 16
  17 0004 23348100 		sd	s0,8(sp)
  18              		.cfi_offset 8, -8
  19 0008 13040101 		addi	s0,sp,16
  20              		.cfi_def_cfa 8, 0
   5:src/semaphoreK.cpp ****     return val;
  21              		.loc 1 5 5
   6:src/semaphoreK.cpp **** }
  22              		.loc 1 6 1 is_stmt 0
  23 000c 03250500 		lw	a0,0(a0)
  24              	.LVL1:
  25 0010 03348100 		ld	s0,8(sp)
  26              		.cfi_restore 8
  27              		.cfi_def_cfa 2, 16
  28 0014 13010101 		addi	sp,sp,16
  29              		.cfi_def_cfa_offset 0
  30 0018 67800000 		jr	ra
  31              		.cfi_endproc
  32              	.LFE24:
  34              		.align	2
  35              		.globl	_ZN10SemaphoreKnwEm
  37              	_ZN10SemaphoreKnwEm:
  38              	.LFB25:
   7:src/semaphoreK.cpp **** 
   8:src/semaphoreK.cpp **** void *SemaphoreK::operator new(SemaphoreK::size_t n) {
  39              		.loc 1 8 54 is_stmt 1
  40              		.cfi_startproc
  41              	.LVL2:
  42 001c 130101FF 		addi	sp,sp,-16
  43              		.cfi_def_cfa_offset 16
  44 0020 23341100 		sd	ra,8(sp)
  45 0024 23308100 		sd	s0,0(sp)
  46              		.cfi_offset 1, -8
  47              		.cfi_offset 8, -16
  48 0028 13040101 		addi	s0,sp,16
  49              		.cfi_def_cfa 8, 0
   9:src/semaphoreK.cpp ****     return __mem_alloc(n);
  50              		.loc 1 9 5
  51              		.loc 1 9 23 is_stmt 0
GAS LISTING /tmp/ccjfkP1w.s 			page 2


  52 002c 97000000 		call	__mem_alloc@plt
  52      E7800000 
  53              	.LVL3:
  10:src/semaphoreK.cpp **** }
  54              		.loc 1 10 1
  55 0034 83308100 		ld	ra,8(sp)
  56              		.cfi_restore 1
  57 0038 03340100 		ld	s0,0(sp)
  58              		.cfi_restore 8
  59              		.cfi_def_cfa 2, 16
  60 003c 13010101 		addi	sp,sp,16
  61              		.cfi_def_cfa_offset 0
  62 0040 67800000 		jr	ra
  63              		.cfi_endproc
  64              	.LFE25:
  66              		.align	2
  67              		.globl	_ZN10SemaphoreKnaEm
  69              	_ZN10SemaphoreKnaEm:
  70              	.LFB26:
  11:src/semaphoreK.cpp **** 
  12:src/semaphoreK.cpp **** void *SemaphoreK::operator new[](SemaphoreK::size_t n) {
  71              		.loc 1 12 56 is_stmt 1
  72              		.cfi_startproc
  73              	.LVL4:
  74 0044 130101FF 		addi	sp,sp,-16
  75              		.cfi_def_cfa_offset 16
  76 0048 23341100 		sd	ra,8(sp)
  77 004c 23308100 		sd	s0,0(sp)
  78              		.cfi_offset 1, -8
  79              		.cfi_offset 8, -16
  80 0050 13040101 		addi	s0,sp,16
  81              		.cfi_def_cfa 8, 0
  13:src/semaphoreK.cpp ****     return __mem_alloc(n);
  82              		.loc 1 13 5
  83              		.loc 1 13 23 is_stmt 0
  84 0054 97000000 		call	__mem_alloc@plt
  84      E7800000 
  85              	.LVL5:
  14:src/semaphoreK.cpp **** }
  86              		.loc 1 14 1
  87 005c 83308100 		ld	ra,8(sp)
  88              		.cfi_restore 1
  89 0060 03340100 		ld	s0,0(sp)
  90              		.cfi_restore 8
  91              		.cfi_def_cfa 2, 16
  92 0064 13010101 		addi	sp,sp,16
  93              		.cfi_def_cfa_offset 0
  94 0068 67800000 		jr	ra
  95              		.cfi_endproc
  96              	.LFE26:
  98              		.align	2
  99              		.globl	_ZN10SemaphoreKdlEPv
 101              	_ZN10SemaphoreKdlEPv:
 102              	.LFB27:
  15:src/semaphoreK.cpp **** 
  16:src/semaphoreK.cpp **** void SemaphoreK::operator delete(void *p) noexcept {
 103              		.loc 1 16 52 is_stmt 1
GAS LISTING /tmp/ccjfkP1w.s 			page 3


 104              		.cfi_startproc
 105              		.cfi_personality 0x9b,DW.ref.__gxx_personality_v0
 106              		.cfi_lsda 0x1b,.LLSDA27
 107              	.LVL6:
 108 006c 130101FF 		addi	sp,sp,-16
 109              		.cfi_def_cfa_offset 16
 110 0070 23341100 		sd	ra,8(sp)
 111 0074 23308100 		sd	s0,0(sp)
 112              		.cfi_offset 1, -8
 113              		.cfi_offset 8, -16
 114 0078 13040101 		addi	s0,sp,16
 115              		.cfi_def_cfa 8, 0
  17:src/semaphoreK.cpp ****     __mem_free(p);
 116              		.loc 1 17 5
 117              		.loc 1 17 15 is_stmt 0
 118 007c 97000000 		call	__mem_free@plt
 118      E7800000 
 119              	.LVL7:
  18:src/semaphoreK.cpp **** }
 120              		.loc 1 18 1
 121 0084 83308100 		ld	ra,8(sp)
 122              		.cfi_restore 1
 123 0088 03340100 		ld	s0,0(sp)
 124              		.cfi_restore 8
 125              		.cfi_def_cfa 2, 16
 126 008c 13010101 		addi	sp,sp,16
 127              		.cfi_def_cfa_offset 0
 128 0090 67800000 		jr	ra
 129              		.cfi_endproc
 130              	.LFE27:
 131              		.globl	__gxx_personality_v0
 132              		.section	.gcc_except_table,"a",@progbits
 133              	.LLSDA27:
 134 0000 FF       		.byte	0xff
 135 0001 FF       		.byte	0xff
 136 0002 03       		.byte	0x3
 137 0003 00       		.byte	0
 138              		.text
 140              		.align	2
 141              		.globl	_ZN10SemaphoreKdaEPv
 143              	_ZN10SemaphoreKdaEPv:
 144              	.LFB28:
  19:src/semaphoreK.cpp **** 
  20:src/semaphoreK.cpp **** void SemaphoreK::operator delete[](void *p) noexcept {
 145              		.loc 1 20 54 is_stmt 1
 146              		.cfi_startproc
 147              		.cfi_personality 0x9b,DW.ref.__gxx_personality_v0
 148              		.cfi_lsda 0x1b,.LLSDA28
 149              	.LVL8:
 150 0094 130101FF 		addi	sp,sp,-16
 151              		.cfi_def_cfa_offset 16
 152 0098 23341100 		sd	ra,8(sp)
 153 009c 23308100 		sd	s0,0(sp)
 154              		.cfi_offset 1, -8
 155              		.cfi_offset 8, -16
 156 00a0 13040101 		addi	s0,sp,16
 157              		.cfi_def_cfa 8, 0
GAS LISTING /tmp/ccjfkP1w.s 			page 4


  21:src/semaphoreK.cpp ****     __mem_free(p);
 158              		.loc 1 21 5
 159              		.loc 1 21 15 is_stmt 0
 160 00a4 97000000 		call	__mem_free@plt
 160      E7800000 
 161              	.LVL9:
  22:src/semaphoreK.cpp **** }
 162              		.loc 1 22 1
 163 00ac 83308100 		ld	ra,8(sp)
 164              		.cfi_restore 1
 165 00b0 03340100 		ld	s0,0(sp)
 166              		.cfi_restore 8
 167              		.cfi_def_cfa 2, 16
 168 00b4 13010101 		addi	sp,sp,16
 169              		.cfi_def_cfa_offset 0
 170 00b8 67800000 		jr	ra
 171              		.cfi_endproc
 172              	.LFE28:
 173              		.section	.gcc_except_table
 174              	.LLSDA28:
 175 0004 FF       		.byte	0xff
 176 0005 FF       		.byte	0xff
 177 0006 03       		.byte	0x3
 178 0007 00       		.byte	0
 179              		.text
 181              		.align	2
 182              		.globl	_ZN10SemaphoreK13openSemaphoreEi
 184              	_ZN10SemaphoreK13openSemaphoreEi:
 185              	.LFB29:
  23:src/semaphoreK.cpp **** 
  24:src/semaphoreK.cpp **** SemaphoreK *SemaphoreK::openSemaphore(int init) {
 186              		.loc 1 24 49 is_stmt 1
 187              		.cfi_startproc
 188              		.cfi_personality 0x9b,DW.ref.__gxx_personality_v0
 189              		.cfi_lsda 0x1b,.LLSDA29
 190              	.LVL10:
 191 00bc 130101FE 		addi	sp,sp,-32
 192              		.cfi_def_cfa_offset 32
 193 00c0 233C1100 		sd	ra,24(sp)
 194 00c4 23388100 		sd	s0,16(sp)
 195 00c8 23349100 		sd	s1,8(sp)
 196 00cc 23302101 		sd	s2,0(sp)
 197              		.cfi_offset 1, -8
 198              		.cfi_offset 8, -16
 199              		.cfi_offset 9, -24
 200              		.cfi_offset 18, -32
 201 00d0 13040102 		addi	s0,sp,32
 202              		.cfi_def_cfa 8, 0
 203 00d4 13090500 		mv	s2,a0
  25:src/semaphoreK.cpp ****     return new SemaphoreK(init);
 204              		.loc 1 25 5
 205              		.loc 1 25 31 is_stmt 0
 206 00d8 13050001 		li	a0,16
 207              	.LVL11:
 208              	.LEHB0:
 209 00dc 97000000 		call	_ZN10SemaphoreKnwEm
 209      E7800000 
GAS LISTING /tmp/ccjfkP1w.s 			page 5


 210              	.LVL12:
 211              	.LEHE0:
 212 00e4 93040500 		mv	s1,a0
 213              	.LVL13:
 214              	.LBB42:
 215              	.LBB43:
 216              		.file 2 "src/../h/semaphoreK.hpp"
   1:src/../h/semaphoreK.hpp **** #ifndef OS1_PROJEKAT_SEMAPHORE_K_HPP
   2:src/../h/semaphoreK.hpp **** #define OS1_PROJEKAT_SEMAPHORE_K_HPP
   3:src/../h/semaphoreK.hpp **** 
   4:src/../h/semaphoreK.hpp **** #include "../lib/mem.h"
   5:src/../h/semaphoreK.hpp **** #include "list.hpp"
   6:src/../h/semaphoreK.hpp **** #include "../h/pcb.hpp"
   7:src/../h/semaphoreK.hpp **** 
   8:src/../h/semaphoreK.hpp **** class PCB;
   9:src/../h/semaphoreK.hpp **** 
  10:src/../h/semaphoreK.hpp **** class SemaphoreK {
  11:src/../h/semaphoreK.hpp **** public:
  12:src/../h/semaphoreK.hpp ****     ~SemaphoreK();
  13:src/../h/semaphoreK.hpp **** 
  14:src/../h/semaphoreK.hpp ****     static SemaphoreK *openSemaphore(int init);
  15:src/../h/semaphoreK.hpp **** 
  16:src/../h/semaphoreK.hpp ****     int wait();
  17:src/../h/semaphoreK.hpp **** 
  18:src/../h/semaphoreK.hpp ****     int signal();
  19:src/../h/semaphoreK.hpp **** 
  20:src/../h/semaphoreK.hpp ****     unsigned int getVal() const;
  21:src/../h/semaphoreK.hpp **** 
  22:src/../h/semaphoreK.hpp ****     void block(PCB *thread);
  23:src/../h/semaphoreK.hpp **** 
  24:src/../h/semaphoreK.hpp ****     PCB *deblock();
  25:src/../h/semaphoreK.hpp **** 
  26:src/../h/semaphoreK.hpp ****     List<PCB> *getBlockedThreadsQueue() const;
  27:src/../h/semaphoreK.hpp **** 
  28:src/../h/semaphoreK.hpp **** private:
  29:src/../h/semaphoreK.hpp ****     explicit SemaphoreK(int initVal) : val(initVal){
 217              		.loc 2 29 51
 218 00e8 23202501 		sw	s2,0(a0)
  30:src/../h/semaphoreK.hpp ****         blockedThreadsQueue=new List<PCB>();
 219              		.loc 2 30 9 is_stmt 1
 220              		.loc 2 30 43 is_stmt 0
 221 00ec 13050001 		li	a0,16
 222              	.LEHB1:
 223 00f0 97000000 		call	_Znwm@plt
 223      E7800000 
 224              	.LVL14:
 225              	.LEHE1:
 226 00f8 6F000002 		j	.L17
 227              	.L13:
 228 00fc 13090500 		mv	s2,a0
 229              	.LVL15:
 230              	.LBE43:
 231              	.LBE42:
 232              		.loc 1 25 31
 233 0100 13850400 		mv	a0,s1
 234 0104 97000000 		call	_ZN10SemaphoreKdlEPv
 234      E7800000 
GAS LISTING /tmp/ccjfkP1w.s 			page 6


 235              	.LVL16:
 236 010c 13050900 		mv	a0,s2
 237              	.LEHB2:
 238 0110 97000000 		call	_Unwind_Resume@plt
 238      E7800000 
 239              	.LVL17:
 240              	.LEHE2:
 241              	.L17:
 242              	.LBB47:
 243              	.LBB46:
 244              	.LBB44:
 245              	.LBB45:
 246              		.file 3 "src/../h/list.hpp"
   1:src/../h/list.hpp **** #ifndef OS1_PROJEKAT_LIST_HPP
   2:src/../h/list.hpp **** #define OS1_PROJEKAT_LIST_HPP
   3:src/../h/list.hpp **** 
   4:src/../h/list.hpp **** #include "../lib/mem.h"
   5:src/../h/list.hpp **** 
   6:src/../h/list.hpp **** template<typename T>
   7:src/../h/list.hpp **** class List {
   8:src/../h/list.hpp **** private:
   9:src/../h/list.hpp ****     struct Elem {
  10:src/../h/list.hpp ****         T *data;
  11:src/../h/list.hpp ****         Elem *next;
  12:src/../h/list.hpp **** 
  13:src/../h/list.hpp ****         Elem(T *data, Elem *next) : data(data), next(next) {}
  14:src/../h/list.hpp ****     };
  15:src/../h/list.hpp **** 
  16:src/../h/list.hpp ****     Elem *head;
  17:src/../h/list.hpp ****     Elem *tail;
  18:src/../h/list.hpp **** 
  19:src/../h/list.hpp **** public:
  20:src/../h/list.hpp ****     List() : head(0), tail(0) {}
 247              		.loc 3 20 29
 248 0118 23300500 		sd	zero,0(a0)
 249 011c 23340500 		sd	zero,8(a0)
 250              	.LVL18:
 251              	.LBE45:
 252              	.LBE44:
 253              		.loc 2 30 28
 254 0120 23B4A400 		sd	a0,8(s1)
 255              	.LVL19:
 256              	.LBE46:
 257              	.LBE47:
  26:src/semaphoreK.cpp **** }
 258              		.loc 1 26 1
 259 0124 13850400 		mv	a0,s1
 260 0128 83308101 		ld	ra,24(sp)
 261              		.cfi_restore 1
 262 012c 03340101 		ld	s0,16(sp)
 263              		.cfi_restore 8
 264              		.cfi_def_cfa 2, 32
 265 0130 83348100 		ld	s1,8(sp)
 266              		.cfi_restore 9
 267 0134 03390100 		ld	s2,0(sp)
 268              		.cfi_restore 18
 269 0138 13010102 		addi	sp,sp,32
GAS LISTING /tmp/ccjfkP1w.s 			page 7


 270              		.cfi_def_cfa_offset 0
 271 013c 67800000 		jr	ra
 272              		.cfi_endproc
 273              	.LFE29:
 274              		.section	.gcc_except_table
 275              	.LLSDA29:
 276 0008 FF       		.byte	0xff
 277 0009 FF       		.byte	0xff
 278 000a 03       		.byte	0x3
 279 000b 27       		.byte	0x27
 280 000c 00000000 		.4byte	.LEHB0-.LFB29
 281 0010 00000000 		.4byte	.LEHE0-.LEHB0
 282 0014 00000000 		.4byte	0
 283 0018 00       		.byte	0
 284 0019 00000000 		.4byte	.LEHB1-.LFB29
 285 001d 00000000 		.4byte	.LEHE1-.LEHB1
 286 0021 00000000 		.4byte	.L13-.LFB29
 287 0025 00       		.byte	0
 288 0026 00000000 		.4byte	.LEHB2-.LFB29
 289 002a 00000000 		.4byte	.LEHE2-.LEHB2
 290 002e 00000000 		.4byte	0
 291 0032 00       		.byte	0
 292              		.text
 294              		.align	2
 295              		.globl	_ZN10SemaphoreK5blockEP3PCB
 297              	_ZN10SemaphoreK5blockEP3PCB:
 298              	.LFB30:
  27:src/semaphoreK.cpp **** 
  28:src/semaphoreK.cpp **** void SemaphoreK::block(PCB *thread) {
 299              		.loc 1 28 37 is_stmt 1
 300              		.cfi_startproc
 301              	.LVL20:
 302 0140 130101FE 		addi	sp,sp,-32
 303              		.cfi_def_cfa_offset 32
 304 0144 233C1100 		sd	ra,24(sp)
 305 0148 23388100 		sd	s0,16(sp)
 306 014c 23349100 		sd	s1,8(sp)
 307 0150 23302101 		sd	s2,0(sp)
 308              		.cfi_offset 1, -8
 309              		.cfi_offset 8, -16
 310              		.cfi_offset 9, -24
 311              		.cfi_offset 18, -32
 312 0154 13040102 		addi	s0,sp,32
 313              		.cfi_def_cfa 8, 0
 314 0158 93840500 		mv	s1,a1
  29:src/semaphoreK.cpp ****     blockedThreadsQueue->addLast(thread);
 315              		.loc 1 29 5
 316 015c 03398500 		ld	s2,8(a0)
 317              	.LVL21:
 318              	.LBB48:
 319              	.LBB49:
  21:src/../h/list.hpp **** 
  22:src/../h/list.hpp ****     List(const List<T> &) = delete;
  23:src/../h/list.hpp **** 
  24:src/../h/list.hpp ****     List<T> &operator=(const List<T> &) = delete;
  25:src/../h/list.hpp **** 
  26:src/../h/list.hpp ****     void addFirst(T *data) {
GAS LISTING /tmp/ccjfkP1w.s 			page 8


  27:src/../h/list.hpp ****         Elem *elem = new Elem(data, head);
  28:src/../h/list.hpp ****         //Elem *elem = (Elem*) __mem_alloc(sizeof (Elem(data,head)));
  29:src/../h/list.hpp ****         head = elem;
  30:src/../h/list.hpp ****         if (!tail) { tail = head; }
  31:src/../h/list.hpp ****     }
  32:src/../h/list.hpp **** 
  33:src/../h/list.hpp ****     void addLast(T *data) {
  34:src/../h/list.hpp ****         Elem *elem = new Elem(data, 0);
 320              		.loc 3 34 22 is_stmt 0
 321 0160 13050001 		li	a0,16
 322              	.LVL22:
 323 0164 97000000 		call	_Znwm@plt
 323      E7800000 
 324              	.LVL23:
 325              	.LBB50:
 326              	.LBB51:
  13:src/../h/list.hpp ****     };
 327              		.loc 3 13 58
 328 016c 23309500 		sd	s1,0(a0)
 329 0170 23340500 		sd	zero,8(a0)
 330              	.LVL24:
 331              	.LBE51:
 332              	.LBE50:
  35:src/../h/list.hpp ****         //Elem *elem = (Elem*)__mem_alloc(sizeof (Elem(data, 0)));
  36:src/../h/list.hpp ****         if (tail) {
 333              		.loc 3 36 13
 334 0174 83378900 		ld	a5,8(s2)
 335              		.loc 3 36 9
 336 0178 63820702 		beqz	a5,.L19
  37:src/../h/list.hpp ****             tail->next = elem;
 337              		.loc 3 37 13
 338 017c 23B4A700 		sd	a0,8(a5)
  38:src/../h/list.hpp ****             tail = elem;
 339              		.loc 3 38 13
 340 0180 2334A900 		sd	a0,8(s2)
 341              	.LVL25:
 342              	.L18:
 343              	.LBE49:
 344              	.LBE48:
  30:src/semaphoreK.cpp **** }
 345              		.loc 1 30 1
 346 0184 83308101 		ld	ra,24(sp)
 347              		.cfi_remember_state
 348              		.cfi_restore 1
 349 0188 03340101 		ld	s0,16(sp)
 350              		.cfi_restore 8
 351              		.cfi_def_cfa 2, 32
 352 018c 83348100 		ld	s1,8(sp)
 353              		.cfi_restore 9
 354              	.LVL26:
 355 0190 03390100 		ld	s2,0(sp)
 356              		.cfi_restore 18
 357 0194 13010102 		addi	sp,sp,32
 358              		.cfi_def_cfa_offset 0
 359 0198 67800000 		jr	ra
 360              	.LVL27:
 361              	.L19:
GAS LISTING /tmp/ccjfkP1w.s 			page 9


 362              		.cfi_restore_state
 363              	.LBB53:
 364              	.LBB52:
  39:src/../h/list.hpp ****         } else {
  40:src/../h/list.hpp ****             head = tail = elem;
 365              		.loc 3 40 13
 366 019c 2334A900 		sd	a0,8(s2)
 367 01a0 2330A900 		sd	a0,0(s2)
 368              	.LVL28:
 369              	.LBE52:
 370              	.LBE53:
 371              		.loc 1 30 1
 372 01a4 6FF01FFE 		j	.L18
 373              		.cfi_endproc
 374              	.LFE30:
 376              		.align	2
 377              		.globl	_ZN10SemaphoreK7deblockEv
 379              	_ZN10SemaphoreK7deblockEv:
 380              	.LFB31:
  31:src/semaphoreK.cpp **** 
  32:src/semaphoreK.cpp **** PCB *SemaphoreK::deblock() {
 381              		.loc 1 32 28 is_stmt 1
 382              		.cfi_startproc
 383              	.LVL29:
 384 01a8 130101FE 		addi	sp,sp,-32
 385              		.cfi_def_cfa_offset 32
 386 01ac 233C1100 		sd	ra,24(sp)
 387 01b0 23388100 		sd	s0,16(sp)
 388 01b4 23349100 		sd	s1,8(sp)
 389              		.cfi_offset 1, -8
 390              		.cfi_offset 8, -16
 391              		.cfi_offset 9, -24
 392 01b8 13040102 		addi	s0,sp,32
 393              		.cfi_def_cfa 8, 0
  33:src/semaphoreK.cpp ****     return blockedThreadsQueue->removeFirst();
 394              		.loc 1 33 5
 395              		.loc 1 33 12 is_stmt 0
 396 01bc 83378500 		ld	a5,8(a0)
 397              	.LVL30:
 398              	.LBB54:
 399              	.LBB55:
  41:src/../h/list.hpp ****         }
  42:src/../h/list.hpp ****     }
  43:src/../h/list.hpp **** 
  44:src/../h/list.hpp ****     T *removeFirst() {
  45:src/../h/list.hpp ****         if (!head) { return 0; }
 400              		.loc 3 45 14
 401 01c0 03B50700 		ld	a0,0(a5)
 402              	.LVL31:
 403              		.loc 3 45 9
 404 01c4 630E0502 		beqz	a0,.L25
 405              	.LVL32:
  46:src/../h/list.hpp ****         Elem *elem = head;
  47:src/../h/list.hpp ****         head = head->next;
 406              		.loc 3 47 22
 407 01c8 03378500 		ld	a4,8(a0)
 408              		.loc 3 47 9
GAS LISTING /tmp/ccjfkP1w.s 			page 10


 409 01cc 23B0E700 		sd	a4,0(a5)
  48:src/../h/list.hpp ****         if (!head) { tail = 0; }
 410              		.loc 3 48 9
 411 01d0 63040702 		beqz	a4,.L27
 412              	.L24:
  49:src/../h/list.hpp **** 
  50:src/../h/list.hpp ****         T *ret = elem->data;
 413              		.loc 3 50 12
 414 01d4 83340500 		ld	s1,0(a0)
 415              	.LVL33:
  51:src/../h/list.hpp ****         delete elem;
 416              		.loc 3 51 9
 417 01d8 97000000 		call	_ZdlPv@plt
 417      E7800000 
 418              	.LVL34:
 419              	.L22:
 420              	.LBE55:
 421              	.LBE54:
  34:src/semaphoreK.cpp **** }
 422              		.loc 1 34 1
 423 01e0 13850400 		mv	a0,s1
 424 01e4 83308101 		ld	ra,24(sp)
 425              		.cfi_remember_state
 426              		.cfi_restore 1
 427 01e8 03340101 		ld	s0,16(sp)
 428              		.cfi_restore 8
 429              		.cfi_def_cfa 2, 32
 430 01ec 83348100 		ld	s1,8(sp)
 431              		.cfi_restore 9
 432 01f0 13010102 		addi	sp,sp,32
 433              		.cfi_def_cfa_offset 0
 434 01f4 67800000 		jr	ra
 435              	.LVL35:
 436              	.L27:
 437              		.cfi_restore_state
 438              	.LBB57:
 439              	.LBB56:
  48:src/../h/list.hpp **** 
 440              		.loc 3 48 22
 441 01f8 23B40700 		sd	zero,8(a5)
 442 01fc 6FF09FFD 		j	.L24
 443              	.LVL36:
 444              	.L25:
  45:src/../h/list.hpp ****         Elem *elem = head;
 445              		.loc 3 45 29
 446 0200 93040500 		mv	s1,a0
 447              	.LVL37:
 448              	.LBE56:
 449              	.LBE57:
  33:src/semaphoreK.cpp **** }
 450              		.loc 1 33 45
 451 0204 6FF0DFFD 		j	.L22
 452              		.cfi_endproc
 453              	.LFE31:
 455              		.align	2
 456              		.globl	_ZN10SemaphoreK4waitEv
 458              	_ZN10SemaphoreK4waitEv:
GAS LISTING /tmp/ccjfkP1w.s 			page 11


 459              	.LFB32:
  35:src/semaphoreK.cpp **** 
  36:src/semaphoreK.cpp **** int SemaphoreK::wait() {
 460              		.loc 1 36 24 is_stmt 1
 461              		.cfi_startproc
 462              	.LVL38:
  37:src/semaphoreK.cpp ****     int retVal=0;
 463              		.loc 1 37 5
  38:src/semaphoreK.cpp ****     val=val-1;
 464              		.loc 1 38 5
 465              		.loc 1 38 9 is_stmt 0
 466 0208 83270500 		lw	a5,0(a0)
 467              		.loc 1 38 12
 468 020c 9B87F7FF 		addiw	a5,a5,-1
 469              		.loc 1 38 8
 470 0210 2320F500 		sw	a5,0(a0)
  39:src/semaphoreK.cpp **** 
  40:src/semaphoreK.cpp ****     if(val<0){
 471              		.loc 1 40 5 is_stmt 1
 472 0214 13970702 		slli	a4,a5,32
 473 0218 63460700 		bltz	a4,.L36
  37:src/semaphoreK.cpp ****     val=val-1;
 474              		.loc 1 37 9 is_stmt 0
 475 021c 13050000 		li	a0,0
 476              	.LVL39:
  41:src/semaphoreK.cpp ****         PCB::running->setBlocked(true);
  42:src/semaphoreK.cpp ****         block(PCB::running);
  43:src/semaphoreK.cpp **** 
  44:src/semaphoreK.cpp ****         PCB::timeSliceCounter = 0;
  45:src/semaphoreK.cpp ****         PCB::dispatch();
  46:src/semaphoreK.cpp ****         if(PCB::running->isDeblockFromSemClose()){
  47:src/semaphoreK.cpp ****             PCB::running->setDeblockFromSemClose(false);
  48:src/semaphoreK.cpp ****             retVal=-15;
  49:src/semaphoreK.cpp ****         }
  50:src/semaphoreK.cpp **** 
  51:src/semaphoreK.cpp ****     }
  52:src/semaphoreK.cpp ****     return retVal;
 477              		.loc 1 52 5 is_stmt 1
  53:src/semaphoreK.cpp **** }
 478              		.loc 1 53 1 is_stmt 0
 479 0220 67800000 		ret
 480              	.LVL40:
 481              	.L36:
  36:src/semaphoreK.cpp ****     int retVal=0;
 482              		.loc 1 36 24
 483 0224 130101FE 		addi	sp,sp,-32
 484              		.cfi_def_cfa_offset 32
 485 0228 233C1100 		sd	ra,24(sp)
 486 022c 23388100 		sd	s0,16(sp)
 487 0230 23349100 		sd	s1,8(sp)
 488              		.cfi_offset 1, -8
 489              		.cfi_offset 8, -16
 490              		.cfi_offset 9, -24
 491 0234 13040102 		addi	s0,sp,32
 492              		.cfi_def_cfa 8, 0
  41:src/semaphoreK.cpp ****         PCB::running->setBlocked(true);
 493              		.loc 1 41 9 is_stmt 1
GAS LISTING /tmp/ccjfkP1w.s 			page 12


  41:src/semaphoreK.cpp ****         PCB::running->setBlocked(true);
 494              		.loc 1 41 33 is_stmt 0
 495 0238 97040000 		la	s1,_ZN3PCB7runningE
 495      83B40400 
 496 0240 83B50400 		ld	a1,0(s1)
 497              	.LVL41:
 498              	.LBB58:
 499              	.LBB59:
 500              		.file 4 "src/../h/../h/pcb.hpp"
   1:src/../h/../h/pcb.hpp **** #ifndef OS1_PROJEKAT_PCB_HPP
   2:src/../h/../h/pcb.hpp **** #define OS1_PROJEKAT_PCB_HPP
   3:src/../h/../h/pcb.hpp **** 
   4:src/../h/../h/pcb.hpp **** #include "../lib/hw.h"
   5:src/../h/../h/pcb.hpp **** #include "scheduler.hpp"
   6:src/../h/../h/pcb.hpp **** #include "../lib/mem.h"
   7:src/../h/../h/pcb.hpp **** 
   8:src/../h/../h/pcb.hpp **** class PCB {
   9:src/../h/../h/pcb.hpp **** public:
  10:src/../h/../h/pcb.hpp ****     ~PCB() { __mem_free(stack); }
  11:src/../h/../h/pcb.hpp **** 
  12:src/../h/../h/pcb.hpp ****     bool isFinished() const { return finished; }
  13:src/../h/../h/pcb.hpp **** 
  14:src/../h/../h/pcb.hpp ****     bool isBlocked() const { return blocked; }
  15:src/../h/../h/pcb.hpp **** 
  16:src/../h/../h/pcb.hpp ****     bool isDeblockFromSemClose() const { return semClose; }
  17:src/../h/../h/pcb.hpp **** 
  18:src/../h/../h/pcb.hpp ****     void *getArg() const { return arg; }
  19:src/../h/../h/pcb.hpp **** 
  20:src/../h/../h/pcb.hpp ****     void setFinished(bool value) { finished = value; }
  21:src/../h/../h/pcb.hpp **** 
  22:src/../h/../h/pcb.hpp ****     void setBlocked(bool value) { blocked = value; }
 501              		.loc 4 22 35 is_stmt 1
 502              		.loc 4 22 43 is_stmt 0
 503 0244 93071000 		li	a5,1
 504 0248 A384F502 		sb	a5,41(a1)
 505              	.LVL42:
 506              	.LBE59:
 507              	.LBE58:
  42:src/semaphoreK.cpp **** 
 508              		.loc 1 42 9 is_stmt 1
  42:src/semaphoreK.cpp **** 
 509              		.loc 1 42 14 is_stmt 0
 510 024c 97000000 		call	_ZN10SemaphoreK5blockEP3PCB
 510      E7800000 
 511              	.LVL43:
  44:src/semaphoreK.cpp ****         PCB::dispatch();
 512              		.loc 1 44 9 is_stmt 1
  44:src/semaphoreK.cpp ****         PCB::dispatch();
 513              		.loc 1 44 31 is_stmt 0
 514 0254 97070000 		la	a5,_ZN3PCB16timeSliceCounterE
 514      83B70700 
 515 025c 23B00700 		sd	zero,0(a5)
  45:src/semaphoreK.cpp ****         if(PCB::running->isDeblockFromSemClose()){
 516              		.loc 1 45 9 is_stmt 1
  45:src/semaphoreK.cpp ****         if(PCB::running->isDeblockFromSemClose()){
 517              		.loc 1 45 22 is_stmt 0
 518 0260 97000000 		call	_ZN3PCB8dispatchEv@plt
GAS LISTING /tmp/ccjfkP1w.s 			page 13


 518      E7800000 
 519              	.LVL44:
  46:src/semaphoreK.cpp ****             PCB::running->setDeblockFromSemClose(false);
 520              		.loc 1 46 9 is_stmt 1
  46:src/semaphoreK.cpp ****             PCB::running->setDeblockFromSemClose(false);
 521              		.loc 1 46 47 is_stmt 0
 522 0268 83B70400 		ld	a5,0(s1)
 523              	.LVL45:
 524              	.LBB60:
 525              	.LBB61:
  16:src/../h/../h/pcb.hpp **** 
 526              		.loc 4 16 42 is_stmt 1
  16:src/../h/../h/pcb.hpp **** 
 527              		.loc 4 16 49 is_stmt 0
 528 026c 03C7A702 		lbu	a4,42(a5)
 529              	.LVL46:
 530              	.LBE61:
 531              	.LBE60:
  46:src/semaphoreK.cpp ****             PCB::running->setDeblockFromSemClose(false);
 532              		.loc 1 46 9
 533 0270 631E0700 		bnez	a4,.L37
  37:src/semaphoreK.cpp ****     val=val-1;
 534              		.loc 1 37 9
 535 0274 13050000 		li	a0,0
 536              	.LVL47:
 537              	.L29:
  52:src/semaphoreK.cpp **** }
 538              		.loc 1 52 5 is_stmt 1
 539              		.loc 1 53 1 is_stmt 0
 540 0278 83308101 		ld	ra,24(sp)
 541              		.cfi_remember_state
 542              		.cfi_restore 1
 543 027c 03340101 		ld	s0,16(sp)
 544              		.cfi_restore 8
 545              		.cfi_def_cfa 2, 32
 546 0280 83348100 		ld	s1,8(sp)
 547              		.cfi_restore 9
 548 0284 13010102 		addi	sp,sp,32
 549              		.cfi_def_cfa_offset 0
 550 0288 67800000 		jr	ra
 551              	.LVL48:
 552              	.L37:
 553              		.cfi_restore_state
  47:src/semaphoreK.cpp ****             retVal=-15;
 554              		.loc 1 47 13 is_stmt 1
 555              	.LBB62:
 556              	.LBB63:
  23:src/../h/../h/pcb.hpp **** 
  24:src/../h/../h/pcb.hpp ****     void setDeblockFromSemClose(bool value) { semClose = value; }
 557              		.loc 4 24 47
 558              		.loc 4 24 56 is_stmt 0
 559 028c 23850702 		sb	zero,42(a5)
 560              	.LVL49:
 561              	.LBE63:
 562              	.LBE62:
  48:src/semaphoreK.cpp ****         }
 563              		.loc 1 48 13 is_stmt 1
GAS LISTING /tmp/ccjfkP1w.s 			page 14


  48:src/semaphoreK.cpp ****         }
 564              		.loc 1 48 19 is_stmt 0
 565 0290 130510FF 		li	a0,-15
 566 0294 6FF05FFE 		j	.L29
 567              		.cfi_endproc
 568              	.LFE32:
 570              		.align	2
 571              		.globl	_ZN10SemaphoreK6signalEv
 573              	_ZN10SemaphoreK6signalEv:
 574              	.LFB33:
  54:src/semaphoreK.cpp **** 
  55:src/semaphoreK.cpp **** int SemaphoreK::signal() {
 575              		.loc 1 55 26 is_stmt 1
 576              		.cfi_startproc
 577              	.LVL50:
  56:src/semaphoreK.cpp ****     val++;
 578              		.loc 1 56 5
 579 0298 83270500 		lw	a5,0(a0)
 580              		.loc 1 56 8 is_stmt 0
 581 029c 9B871700 		addiw	a5,a5,1
 582 02a0 1B870700 		sext.w	a4,a5
 583 02a4 2320F500 		sw	a5,0(a0)
  57:src/semaphoreK.cpp ****     if(val<=0){
 584              		.loc 1 57 5 is_stmt 1
 585              	.LBB64:
 586 02a8 6356E000 		blez	a4,.L44
 587              	.LBE64:
  58:src/semaphoreK.cpp ****         PCB* deblockedThread=deblock();
  59:src/semaphoreK.cpp ****         deblockedThread->setBlocked(false);
  60:src/semaphoreK.cpp ****         Scheduler::put(deblockedThread);
  61:src/semaphoreK.cpp ****     }
  62:src/semaphoreK.cpp ****     return 0;
 588              		.loc 1 62 5
  63:src/semaphoreK.cpp **** }
 589              		.loc 1 63 1 is_stmt 0
 590 02ac 13050000 		li	a0,0
 591              	.LVL51:
 592 02b0 67800000 		ret
 593              	.LVL52:
 594              	.L44:
  55:src/semaphoreK.cpp ****     val++;
 595              		.loc 1 55 26
 596 02b4 130101FF 		addi	sp,sp,-16
 597              		.cfi_def_cfa_offset 16
 598 02b8 23341100 		sd	ra,8(sp)
 599 02bc 23308100 		sd	s0,0(sp)
 600              		.cfi_offset 1, -8
 601              		.cfi_offset 8, -16
 602 02c0 13040101 		addi	s0,sp,16
 603              		.cfi_def_cfa 8, 0
 604              	.LBB68:
 605              	.LBB65:
  58:src/semaphoreK.cpp ****         PCB* deblockedThread=deblock();
 606              		.loc 1 58 9 is_stmt 1
  58:src/semaphoreK.cpp ****         PCB* deblockedThread=deblock();
 607              		.loc 1 58 37 is_stmt 0
 608 02c4 97000000 		call	_ZN10SemaphoreK7deblockEv
GAS LISTING /tmp/ccjfkP1w.s 			page 15


 608      E7800000 
 609              	.LVL53:
  59:src/semaphoreK.cpp ****         Scheduler::put(deblockedThread);
 610              		.loc 1 59 9 is_stmt 1
 611              	.LBB66:
 612              	.LBB67:
  22:src/../h/../h/pcb.hpp **** 
 613              		.loc 4 22 35
  22:src/../h/../h/pcb.hpp **** 
 614              		.loc 4 22 43 is_stmt 0
 615 02cc A3040502 		sb	zero,41(a0)
 616              	.LVL54:
 617              	.LBE67:
 618              	.LBE66:
  60:src/semaphoreK.cpp ****     }
 619              		.loc 1 60 9 is_stmt 1
  60:src/semaphoreK.cpp ****     }
 620              		.loc 1 60 23 is_stmt 0
 621 02d0 97000000 		call	_ZN9Scheduler3putEP3PCB@plt
 621      E7800000 
 622              	.LVL55:
 623              	.LBE65:
 624              	.LBE68:
  62:src/semaphoreK.cpp **** }
 625              		.loc 1 62 5 is_stmt 1
 626              		.loc 1 63 1 is_stmt 0
 627 02d8 13050000 		li	a0,0
 628 02dc 83308100 		ld	ra,8(sp)
 629              		.cfi_restore 1
 630 02e0 03340100 		ld	s0,0(sp)
 631              		.cfi_restore 8
 632              		.cfi_def_cfa 2, 16
 633 02e4 13010101 		addi	sp,sp,16
 634              		.cfi_def_cfa_offset 0
 635 02e8 67800000 		jr	ra
 636              		.cfi_endproc
 637              	.LFE33:
 639              		.align	2
 640              		.globl	_ZN10SemaphoreKD2Ev
 642              	_ZN10SemaphoreKD2Ev:
 643              	.LFB35:
  64:src/semaphoreK.cpp **** 
  65:src/semaphoreK.cpp **** SemaphoreK::~SemaphoreK() {
 644              		.loc 1 65 1 is_stmt 1
 645              		.cfi_startproc
 646              		.cfi_personality 0x9b,DW.ref.__gxx_personality_v0
 647              		.cfi_lsda 0x1b,.LLSDA35
 648              	.LVL56:
 649 02ec 130101FE 		addi	sp,sp,-32
 650              		.cfi_def_cfa_offset 32
 651 02f0 233C1100 		sd	ra,24(sp)
 652 02f4 23388100 		sd	s0,16(sp)
 653 02f8 23349100 		sd	s1,8(sp)
 654 02fc 23302101 		sd	s2,0(sp)
 655              		.cfi_offset 1, -8
 656              		.cfi_offset 8, -16
 657              		.cfi_offset 9, -24
GAS LISTING /tmp/ccjfkP1w.s 			page 16


 658              		.cfi_offset 18, -32
 659 0300 13040102 		addi	s0,sp,32
 660              		.cfi_def_cfa 8, 0
 661 0304 13090500 		mv	s2,a0
 662              	.LBB69:
  66:src/semaphoreK.cpp **** 
  67:src/semaphoreK.cpp ****     PCB* deblockedThreads=blockedThreadsQueue->removeFirst();
 663              		.loc 1 67 5
 664              		.loc 1 67 27 is_stmt 0
 665 0308 83378500 		ld	a5,8(a0)
 666              	.LVL57:
 667              	.LBB70:
 668              	.LBB71:
  45:src/../h/list.hpp ****         Elem *elem = head;
 669              		.loc 3 45 14
 670 030c 03B50700 		ld	a0,0(a5)
 671              	.LVL58:
  45:src/../h/list.hpp ****         Elem *elem = head;
 672              		.loc 3 45 9
 673 0310 63040502 		beqz	a0,.L51
 674              	.LVL59:
  47:src/../h/list.hpp ****         if (!head) { tail = 0; }
 675              		.loc 3 47 22
 676 0314 03378500 		ld	a4,8(a0)
  47:src/../h/list.hpp ****         if (!head) { tail = 0; }
 677              		.loc 3 47 9
 678 0318 23B0E700 		sd	a4,0(a5)
  48:src/../h/list.hpp **** 
 679              		.loc 3 48 9
 680 031c 630A0700 		beqz	a4,.L53
 681              	.L47:
  50:src/../h/list.hpp ****         delete elem;
 682              		.loc 3 50 12
 683 0320 83340500 		ld	s1,0(a0)
 684              	.LVL60:
 685              		.loc 3 51 9
 686 0324 97000000 		call	_ZdlPv@plt
 686      E7800000 
 687              	.LVL61:
  52:src/../h/list.hpp ****         //__mem_free(elem);
  53:src/../h/list.hpp ****         return ret;
 688              		.loc 3 53 16
 689 032c 6F004002 		j	.L50
 690              	.LVL62:
 691              	.L53:
  48:src/../h/list.hpp **** 
 692              		.loc 3 48 22
 693 0330 23B40700 		sd	zero,8(a5)
 694 0334 6FF0DFFE 		j	.L47
 695              	.LVL63:
 696              	.L51:
  45:src/../h/list.hpp ****         Elem *elem = head;
 697              		.loc 3 45 29
 698 0338 93040500 		mv	s1,a0
 699 033c 6F004001 		j	.L50
 700              	.LVL64:
 701              	.L54:
GAS LISTING /tmp/ccjfkP1w.s 			page 17


 702              	.LBE71:
 703              	.LBE70:
 704              	.LBB72:
 705              	.LBB73:
  48:src/../h/list.hpp **** 
 706              		.loc 3 48 22
 707 0340 23B40700 		sd	zero,8(a5)
 708              	.L49:
  50:src/../h/list.hpp ****         delete elem;
 709              		.loc 3 50 12
 710 0344 83340500 		ld	s1,0(a0)
 711              	.LVL65:
  51:src/../h/list.hpp ****         //__mem_free(elem);
 712              		.loc 3 51 9
 713 0348 97000000 		call	_ZdlPv@plt
 713      E7800000 
 714              	.LVL66:
 715              	.L50:
 716              	.LBE73:
 717              	.LBE72:
  68:src/semaphoreK.cpp ****     while(deblockedThreads){
 718              		.loc 1 68 5 is_stmt 1
 719              		.loc 1 68 11
 720 0350 63820404 		beqz	s1,.L45
  69:src/semaphoreK.cpp ****         val++;
 721              		.loc 1 69 9
 722 0354 83270900 		lw	a5,0(s2)
 723              		.loc 1 69 12 is_stmt 0
 724 0358 9B871700 		addiw	a5,a5,1
 725 035c 2320F900 		sw	a5,0(s2)
  70:src/semaphoreK.cpp ****         deblockedThreads->setBlocked(false);
 726              		.loc 1 70 9 is_stmt 1
 727              	.LVL67:
 728              	.LBB75:
 729              	.LBB76:
  22:src/../h/../h/pcb.hpp **** 
 730              		.loc 4 22 35
  22:src/../h/../h/pcb.hpp **** 
 731              		.loc 4 22 43 is_stmt 0
 732 0360 A3840402 		sb	zero,41(s1)
 733              	.LVL68:
 734              	.LBE76:
 735              	.LBE75:
  71:src/semaphoreK.cpp ****         deblockedThreads->setDeblockFromSemClose(true);
 736              		.loc 1 71 9 is_stmt 1
 737              	.LBB77:
 738              	.LBB78:
 739              		.loc 4 24 47
 740              		.loc 4 24 56 is_stmt 0
 741 0364 93071000 		li	a5,1
 742 0368 2385F402 		sb	a5,42(s1)
 743              	.LVL69:
 744              	.LBE78:
 745              	.LBE77:
  72:src/semaphoreK.cpp ****         Scheduler::put(deblockedThreads);
 746              		.loc 1 72 9 is_stmt 1
 747              		.loc 1 72 23 is_stmt 0
GAS LISTING /tmp/ccjfkP1w.s 			page 18


 748 036c 13850400 		mv	a0,s1
 749 0370 97000000 		call	_ZN9Scheduler3putEP3PCB@plt
 749      E7800000 
 750              	.LVL70:
  73:src/semaphoreK.cpp ****         deblockedThreads=blockedThreadsQueue->removeFirst();
 751              		.loc 1 73 9 is_stmt 1
 752              		.loc 1 73 26 is_stmt 0
 753 0378 83378900 		ld	a5,8(s2)
 754              	.LVL71:
 755              	.LBB79:
 756              	.LBB74:
  45:src/../h/list.hpp ****         Elem *elem = head;
 757              		.loc 3 45 14
 758 037c 03B50700 		ld	a0,0(a5)
  45:src/../h/list.hpp ****         Elem *elem = head;
 759              		.loc 3 45 9
 760 0380 630A0500 		beqz	a0,.L45
 761              	.LVL72:
  47:src/../h/list.hpp ****         if (!head) { tail = 0; }
 762              		.loc 3 47 22
 763 0384 03378500 		ld	a4,8(a0)
  47:src/../h/list.hpp ****         if (!head) { tail = 0; }
 764              		.loc 3 47 9
 765 0388 23B0E700 		sd	a4,0(a5)
  48:src/../h/list.hpp **** 
 766              		.loc 3 48 9
 767 038c E31C07FA 		bnez	a4,.L49
 768 0390 6FF01FFB 		j	.L54
 769              	.LVL73:
 770              	.L45:
 771              	.LBE74:
 772              	.LBE79:
 773              	.LBE69:
  74:src/semaphoreK.cpp ****     }
  75:src/semaphoreK.cpp **** 
  76:src/semaphoreK.cpp **** }
 774              		.loc 1 76 1
 775 0394 83308101 		ld	ra,24(sp)
 776              		.cfi_restore 1
 777 0398 03340101 		ld	s0,16(sp)
 778              		.cfi_restore 8
 779              		.cfi_def_cfa 2, 32
 780 039c 83348100 		ld	s1,8(sp)
 781              		.cfi_restore 9
 782              	.LVL74:
 783 03a0 03390100 		ld	s2,0(sp)
 784              		.cfi_restore 18
 785              	.LVL75:
 786 03a4 13010102 		addi	sp,sp,32
 787              		.cfi_def_cfa_offset 0
 788 03a8 67800000 		jr	ra
 789              		.cfi_endproc
 790              	.LFE35:
 791              		.section	.gcc_except_table
 792              	.LLSDA35:
 793 0033 FF       		.byte	0xff
 794 0034 FF       		.byte	0xff
GAS LISTING /tmp/ccjfkP1w.s 			page 19


 795 0035 03       		.byte	0x3
 796 0036 00       		.byte	0
 797              		.text
 799              		.globl	_ZN10SemaphoreKD1Ev
 800              		.set	_ZN10SemaphoreKD1Ev,_ZN10SemaphoreKD2Ev
 801              		.align	2
 802              		.globl	_ZNK10SemaphoreK22getBlockedThreadsQueueEv
 804              	_ZNK10SemaphoreK22getBlockedThreadsQueueEv:
 805              	.LFB37:
  77:src/semaphoreK.cpp **** 
  78:src/semaphoreK.cpp **** List<PCB> *SemaphoreK::getBlockedThreadsQueue() const {
 806              		.loc 1 78 55 is_stmt 1
 807              		.cfi_startproc
 808              	.LVL76:
 809 03ac 130101FF 		addi	sp,sp,-16
 810              		.cfi_def_cfa_offset 16
 811 03b0 23348100 		sd	s0,8(sp)
 812              		.cfi_offset 8, -8
 813 03b4 13040101 		addi	s0,sp,16
 814              		.cfi_def_cfa 8, 0
  79:src/semaphoreK.cpp ****     return blockedThreadsQueue;
 815              		.loc 1 79 5
  80:src/semaphoreK.cpp **** }
 816              		.loc 1 80 1 is_stmt 0
 817 03b8 03358500 		ld	a0,8(a0)
 818              	.LVL77:
 819 03bc 03348100 		ld	s0,8(sp)
 820              		.cfi_restore 8
 821              		.cfi_def_cfa 2, 16
 822 03c0 13010101 		addi	sp,sp,16
 823              		.cfi_def_cfa_offset 0
 824 03c4 67800000 		jr	ra
 825              		.cfi_endproc
 826              	.LFE37:
 828              	.Letext0:
 829              		.file 5 "src/../h/../lib/hw.h"
 830              		.file 6 "src/../h/../h/scheduler.hpp"
 831              		.file 7 "src/../h/../lib/mem.h"
 4550              		.align	3
 4553              	DW.ref.__gxx_personality_v0:
 4554 0000 00000000 		.dword	__gxx_personality_v0
 4554      00000000 
 4555              		.ident	"GCC: (Ubuntu 9.4.0-1ubuntu1~20.04) 9.4.0"
 4556              		.section	.note.GNU-stack,"",@progbits
GAS LISTING /tmp/ccjfkP1w.s 			page 20


DEFINED SYMBOLS
                            *ABS*:0000000000000000 semaphoreK.cpp
     /tmp/ccjfkP1w.s:9      .text:0000000000000000 _ZNK10SemaphoreK6getValEv
     /tmp/ccjfkP1w.s:13     .text:0000000000000000 .L0 
     /tmp/ccjfkP1w.s:15     .text:0000000000000000 .L0 
     /tmp/ccjfkP1w.s:16     .text:0000000000000004 .L0 
     /tmp/ccjfkP1w.s:18     .text:0000000000000008 .L0 
     /tmp/ccjfkP1w.s:20     .text:000000000000000c .L0 
     /tmp/ccjfkP1w.s:22     .text:000000000000000c .L0 
     /tmp/ccjfkP1w.s:23     .text:000000000000000c .L0 
     /tmp/ccjfkP1w.s:26     .text:0000000000000014 .L0 
     /tmp/ccjfkP1w.s:27     .text:0000000000000014 .L0 
     /tmp/ccjfkP1w.s:29     .text:0000000000000018 .L0 
     /tmp/ccjfkP1w.s:31     .text:000000000000001c .L0 
     /tmp/ccjfkP1w.s:37     .text:000000000000001c _ZN10SemaphoreKnwEm
     /tmp/ccjfkP1w.s:40     .text:000000000000001c .L0 
     /tmp/ccjfkP1w.s:42     .text:000000000000001c .L0 
     /tmp/ccjfkP1w.s:43     .text:0000000000000020 .L0 
     /tmp/ccjfkP1w.s:46     .text:0000000000000028 .L0 
     /tmp/ccjfkP1w.s:47     .text:0000000000000028 .L0 
     /tmp/ccjfkP1w.s:49     .text:000000000000002c .L0 
     /tmp/ccjfkP1w.s:51     .text:000000000000002c .L0 
     /tmp/ccjfkP1w.s:52     .text:000000000000002c .L0 
     /tmp/ccjfkP1w.s:55     .text:0000000000000034 .L0 
     /tmp/ccjfkP1w.s:56     .text:0000000000000038 .L0 
     /tmp/ccjfkP1w.s:58     .text:000000000000003c .L0 
     /tmp/ccjfkP1w.s:59     .text:000000000000003c .L0 
     /tmp/ccjfkP1w.s:61     .text:0000000000000040 .L0 
     /tmp/ccjfkP1w.s:63     .text:0000000000000044 .L0 
     /tmp/ccjfkP1w.s:69     .text:0000000000000044 _ZN10SemaphoreKnaEm
     /tmp/ccjfkP1w.s:72     .text:0000000000000044 .L0 
     /tmp/ccjfkP1w.s:74     .text:0000000000000044 .L0 
     /tmp/ccjfkP1w.s:75     .text:0000000000000048 .L0 
     /tmp/ccjfkP1w.s:78     .text:0000000000000050 .L0 
     /tmp/ccjfkP1w.s:79     .text:0000000000000050 .L0 
     /tmp/ccjfkP1w.s:81     .text:0000000000000054 .L0 
     /tmp/ccjfkP1w.s:83     .text:0000000000000054 .L0 
     /tmp/ccjfkP1w.s:84     .text:0000000000000054 .L0 
     /tmp/ccjfkP1w.s:87     .text:000000000000005c .L0 
     /tmp/ccjfkP1w.s:88     .text:0000000000000060 .L0 
     /tmp/ccjfkP1w.s:90     .text:0000000000000064 .L0 
     /tmp/ccjfkP1w.s:91     .text:0000000000000064 .L0 
     /tmp/ccjfkP1w.s:93     .text:0000000000000068 .L0 
     /tmp/ccjfkP1w.s:95     .text:000000000000006c .L0 
     /tmp/ccjfkP1w.s:101    .text:000000000000006c _ZN10SemaphoreKdlEPv
     /tmp/ccjfkP1w.s:104    .text:000000000000006c .L0 
     /tmp/ccjfkP1w.s:4553   .data.rel.local.DW.ref.__gxx_personality_v0:0000000000000000 DW.ref.__gxx_personality_v0
     /tmp/ccjfkP1w.s:108    .text:000000000000006c .L0 
     /tmp/ccjfkP1w.s:109    .text:0000000000000070 .L0 
     /tmp/ccjfkP1w.s:112    .text:0000000000000078 .L0 
     /tmp/ccjfkP1w.s:113    .text:0000000000000078 .L0 
     /tmp/ccjfkP1w.s:115    .text:000000000000007c .L0 
     /tmp/ccjfkP1w.s:117    .text:000000000000007c .L0 
     /tmp/ccjfkP1w.s:118    .text:000000000000007c .L0 
     /tmp/ccjfkP1w.s:121    .text:0000000000000084 .L0 
     /tmp/ccjfkP1w.s:122    .text:0000000000000088 .L0 
     /tmp/ccjfkP1w.s:124    .text:000000000000008c .L0 
GAS LISTING /tmp/ccjfkP1w.s 			page 21


     /tmp/ccjfkP1w.s:125    .text:000000000000008c .L0 
     /tmp/ccjfkP1w.s:127    .text:0000000000000090 .L0 
     /tmp/ccjfkP1w.s:129    .text:0000000000000094 .L0 
     /tmp/ccjfkP1w.s:143    .text:0000000000000094 _ZN10SemaphoreKdaEPv
     /tmp/ccjfkP1w.s:146    .text:0000000000000094 .L0 
     /tmp/ccjfkP1w.s:150    .text:0000000000000094 .L0 
     /tmp/ccjfkP1w.s:151    .text:0000000000000098 .L0 
     /tmp/ccjfkP1w.s:154    .text:00000000000000a0 .L0 
     /tmp/ccjfkP1w.s:155    .text:00000000000000a0 .L0 
     /tmp/ccjfkP1w.s:157    .text:00000000000000a4 .L0 
     /tmp/ccjfkP1w.s:159    .text:00000000000000a4 .L0 
     /tmp/ccjfkP1w.s:160    .text:00000000000000a4 .L0 
     /tmp/ccjfkP1w.s:163    .text:00000000000000ac .L0 
     /tmp/ccjfkP1w.s:164    .text:00000000000000b0 .L0 
     /tmp/ccjfkP1w.s:166    .text:00000000000000b4 .L0 
     /tmp/ccjfkP1w.s:167    .text:00000000000000b4 .L0 
     /tmp/ccjfkP1w.s:169    .text:00000000000000b8 .L0 
     /tmp/ccjfkP1w.s:171    .text:00000000000000bc .L0 
     /tmp/ccjfkP1w.s:184    .text:00000000000000bc _ZN10SemaphoreK13openSemaphoreEi
     /tmp/ccjfkP1w.s:187    .text:00000000000000bc .L0 
     /tmp/ccjfkP1w.s:191    .text:00000000000000bc .L0 
     /tmp/ccjfkP1w.s:192    .text:00000000000000c0 .L0 
     /tmp/ccjfkP1w.s:197    .text:00000000000000d0 .L0 
     /tmp/ccjfkP1w.s:198    .text:00000000000000d0 .L0 
     /tmp/ccjfkP1w.s:199    .text:00000000000000d0 .L0 
     /tmp/ccjfkP1w.s:200    .text:00000000000000d0 .L0 
     /tmp/ccjfkP1w.s:202    .text:00000000000000d4 .L0 
     /tmp/ccjfkP1w.s:205    .text:00000000000000d8 .L0 
     /tmp/ccjfkP1w.s:206    .text:00000000000000d8 .L0 
     /tmp/ccjfkP1w.s:218    .text:00000000000000e8 .L0 
     /tmp/ccjfkP1w.s:220    .text:00000000000000ec .L0 
     /tmp/ccjfkP1w.s:221    .text:00000000000000ec .L0 
     /tmp/ccjfkP1w.s:233    .text:0000000000000100 .L0 
     /tmp/ccjfkP1w.s:248    .text:0000000000000118 .L0 
     /tmp/ccjfkP1w.s:254    .text:0000000000000120 .L0 
     /tmp/ccjfkP1w.s:259    .text:0000000000000124 .L0 
     /tmp/ccjfkP1w.s:261    .text:000000000000012c .L0 
     /tmp/ccjfkP1w.s:263    .text:0000000000000130 .L0 
     /tmp/ccjfkP1w.s:264    .text:0000000000000130 .L0 
     /tmp/ccjfkP1w.s:266    .text:0000000000000134 .L0 
     /tmp/ccjfkP1w.s:268    .text:0000000000000138 .L0 
     /tmp/ccjfkP1w.s:270    .text:000000000000013c .L0 
     /tmp/ccjfkP1w.s:272    .text:0000000000000140 .L0 
     /tmp/ccjfkP1w.s:297    .text:0000000000000140 _ZN10SemaphoreK5blockEP3PCB
     /tmp/ccjfkP1w.s:300    .text:0000000000000140 .L0 
     /tmp/ccjfkP1w.s:302    .text:0000000000000140 .L0 
     /tmp/ccjfkP1w.s:303    .text:0000000000000144 .L0 
     /tmp/ccjfkP1w.s:308    .text:0000000000000154 .L0 
     /tmp/ccjfkP1w.s:309    .text:0000000000000154 .L0 
     /tmp/ccjfkP1w.s:310    .text:0000000000000154 .L0 
     /tmp/ccjfkP1w.s:311    .text:0000000000000154 .L0 
     /tmp/ccjfkP1w.s:313    .text:0000000000000158 .L0 
     /tmp/ccjfkP1w.s:316    .text:000000000000015c .L0 
     /tmp/ccjfkP1w.s:321    .text:0000000000000160 .L0 
     /tmp/ccjfkP1w.s:328    .text:000000000000016c .L0 
     /tmp/ccjfkP1w.s:334    .text:0000000000000174 .L0 
     /tmp/ccjfkP1w.s:336    .text:0000000000000178 .L0 
GAS LISTING /tmp/ccjfkP1w.s 			page 22


     /tmp/ccjfkP1w.s:338    .text:000000000000017c .L0 
     /tmp/ccjfkP1w.s:340    .text:0000000000000180 .L0 
     /tmp/ccjfkP1w.s:346    .text:0000000000000184 .L0 
     /tmp/ccjfkP1w.s:347    .text:0000000000000188 .L0 
     /tmp/ccjfkP1w.s:348    .text:0000000000000188 .L0 
     /tmp/ccjfkP1w.s:350    .text:000000000000018c .L0 
     /tmp/ccjfkP1w.s:351    .text:000000000000018c .L0 
     /tmp/ccjfkP1w.s:353    .text:0000000000000190 .L0 
     /tmp/ccjfkP1w.s:356    .text:0000000000000194 .L0 
     /tmp/ccjfkP1w.s:358    .text:0000000000000198 .L0 
     /tmp/ccjfkP1w.s:362    .text:000000000000019c .L0 
     /tmp/ccjfkP1w.s:366    .text:000000000000019c .L0 
     /tmp/ccjfkP1w.s:372    .text:00000000000001a4 .L0 
     /tmp/ccjfkP1w.s:373    .text:00000000000001a8 .L0 
     /tmp/ccjfkP1w.s:379    .text:00000000000001a8 _ZN10SemaphoreK7deblockEv
     /tmp/ccjfkP1w.s:382    .text:00000000000001a8 .L0 
     /tmp/ccjfkP1w.s:384    .text:00000000000001a8 .L0 
     /tmp/ccjfkP1w.s:385    .text:00000000000001ac .L0 
     /tmp/ccjfkP1w.s:389    .text:00000000000001b8 .L0 
     /tmp/ccjfkP1w.s:390    .text:00000000000001b8 .L0 
     /tmp/ccjfkP1w.s:391    .text:00000000000001b8 .L0 
     /tmp/ccjfkP1w.s:393    .text:00000000000001bc .L0 
     /tmp/ccjfkP1w.s:395    .text:00000000000001bc .L0 
     /tmp/ccjfkP1w.s:396    .text:00000000000001bc .L0 
     /tmp/ccjfkP1w.s:401    .text:00000000000001c0 .L0 
     /tmp/ccjfkP1w.s:404    .text:00000000000001c4 .L0 
     /tmp/ccjfkP1w.s:407    .text:00000000000001c8 .L0 
     /tmp/ccjfkP1w.s:409    .text:00000000000001cc .L0 
     /tmp/ccjfkP1w.s:411    .text:00000000000001d0 .L0 
     /tmp/ccjfkP1w.s:414    .text:00000000000001d4 .L0 
     /tmp/ccjfkP1w.s:417    .text:00000000000001d8 .L0 
     /tmp/ccjfkP1w.s:423    .text:00000000000001e0 .L0 
     /tmp/ccjfkP1w.s:425    .text:00000000000001e8 .L0 
     /tmp/ccjfkP1w.s:426    .text:00000000000001e8 .L0 
     /tmp/ccjfkP1w.s:428    .text:00000000000001ec .L0 
     /tmp/ccjfkP1w.s:429    .text:00000000000001ec .L0 
     /tmp/ccjfkP1w.s:431    .text:00000000000001f0 .L0 
     /tmp/ccjfkP1w.s:433    .text:00000000000001f4 .L0 
     /tmp/ccjfkP1w.s:437    .text:00000000000001f8 .L0 
     /tmp/ccjfkP1w.s:441    .text:00000000000001f8 .L0 
     /tmp/ccjfkP1w.s:446    .text:0000000000000200 .L0 
     /tmp/ccjfkP1w.s:451    .text:0000000000000204 .L0 
     /tmp/ccjfkP1w.s:452    .text:0000000000000208 .L0 
     /tmp/ccjfkP1w.s:458    .text:0000000000000208 _ZN10SemaphoreK4waitEv
     /tmp/ccjfkP1w.s:461    .text:0000000000000208 .L0 
     /tmp/ccjfkP1w.s:463    .text:0000000000000208 .L0 
     /tmp/ccjfkP1w.s:464    .text:0000000000000208 .L0 
     /tmp/ccjfkP1w.s:465    .text:0000000000000208 .L0 
     /tmp/ccjfkP1w.s:466    .text:0000000000000208 .L0 
     /tmp/ccjfkP1w.s:468    .text:000000000000020c .L0 
     /tmp/ccjfkP1w.s:470    .text:0000000000000210 .L0 
     /tmp/ccjfkP1w.s:472    .text:0000000000000214 .L0 
     /tmp/ccjfkP1w.s:475    .text:000000000000021c .L0 
     /tmp/ccjfkP1w.s:478    .text:0000000000000220 .L0 
     /tmp/ccjfkP1w.s:479    .text:0000000000000220 .L0 
     /tmp/ccjfkP1w.s:483    .text:0000000000000224 .L0 
     /tmp/ccjfkP1w.s:484    .text:0000000000000228 .L0 
GAS LISTING /tmp/ccjfkP1w.s 			page 23


     /tmp/ccjfkP1w.s:488    .text:0000000000000234 .L0 
     /tmp/ccjfkP1w.s:489    .text:0000000000000234 .L0 
     /tmp/ccjfkP1w.s:490    .text:0000000000000234 .L0 
     /tmp/ccjfkP1w.s:492    .text:0000000000000238 .L0 
     /tmp/ccjfkP1w.s:494    .text:0000000000000238 .L0 
     /tmp/ccjfkP1w.s:495    .text:0000000000000238 .L0 
     /tmp/ccjfkP1w.s:502    .text:0000000000000244 .L0 
     /tmp/ccjfkP1w.s:503    .text:0000000000000244 .L0 
     /tmp/ccjfkP1w.s:509    .text:000000000000024c .L0 
     /tmp/ccjfkP1w.s:510    .text:000000000000024c .L0 
     /tmp/ccjfkP1w.s:513    .text:0000000000000254 .L0 
     /tmp/ccjfkP1w.s:514    .text:0000000000000254 .L0 
     /tmp/ccjfkP1w.s:517    .text:0000000000000260 .L0 
     /tmp/ccjfkP1w.s:518    .text:0000000000000260 .L0 
     /tmp/ccjfkP1w.s:521    .text:0000000000000268 .L0 
     /tmp/ccjfkP1w.s:522    .text:0000000000000268 .L0 
     /tmp/ccjfkP1w.s:527    .text:000000000000026c .L0 
     /tmp/ccjfkP1w.s:528    .text:000000000000026c .L0 
     /tmp/ccjfkP1w.s:533    .text:0000000000000270 .L0 
     /tmp/ccjfkP1w.s:535    .text:0000000000000274 .L0 
     /tmp/ccjfkP1w.s:539    .text:0000000000000278 .L0 
     /tmp/ccjfkP1w.s:540    .text:0000000000000278 .L0 
     /tmp/ccjfkP1w.s:541    .text:000000000000027c .L0 
     /tmp/ccjfkP1w.s:542    .text:000000000000027c .L0 
     /tmp/ccjfkP1w.s:544    .text:0000000000000280 .L0 
     /tmp/ccjfkP1w.s:545    .text:0000000000000280 .L0 
     /tmp/ccjfkP1w.s:547    .text:0000000000000284 .L0 
     /tmp/ccjfkP1w.s:549    .text:0000000000000288 .L0 
     /tmp/ccjfkP1w.s:553    .text:000000000000028c .L0 
     /tmp/ccjfkP1w.s:557    .text:000000000000028c .L0 
     /tmp/ccjfkP1w.s:558    .text:000000000000028c .L0 
     /tmp/ccjfkP1w.s:559    .text:000000000000028c .L0 
     /tmp/ccjfkP1w.s:564    .text:0000000000000290 .L0 
     /tmp/ccjfkP1w.s:565    .text:0000000000000290 .L0 
     /tmp/ccjfkP1w.s:567    .text:0000000000000298 .L0 
     /tmp/ccjfkP1w.s:573    .text:0000000000000298 _ZN10SemaphoreK6signalEv
     /tmp/ccjfkP1w.s:576    .text:0000000000000298 .L0 
     /tmp/ccjfkP1w.s:578    .text:0000000000000298 .L0 
     /tmp/ccjfkP1w.s:579    .text:0000000000000298 .L0 
     /tmp/ccjfkP1w.s:581    .text:000000000000029c .L0 
     /tmp/ccjfkP1w.s:586    .text:00000000000002a8 .L0 
     /tmp/ccjfkP1w.s:589    .text:00000000000002ac .L0 
     /tmp/ccjfkP1w.s:590    .text:00000000000002ac .L0 
     /tmp/ccjfkP1w.s:596    .text:00000000000002b4 .L0 
     /tmp/ccjfkP1w.s:597    .text:00000000000002b8 .L0 
     /tmp/ccjfkP1w.s:600    .text:00000000000002c0 .L0 
     /tmp/ccjfkP1w.s:601    .text:00000000000002c0 .L0 
     /tmp/ccjfkP1w.s:603    .text:00000000000002c4 .L0 
     /tmp/ccjfkP1w.s:607    .text:00000000000002c4 .L0 
     /tmp/ccjfkP1w.s:608    .text:00000000000002c4 .L0 
     /tmp/ccjfkP1w.s:613    .text:00000000000002cc .L0 
     /tmp/ccjfkP1w.s:614    .text:00000000000002cc .L0 
     /tmp/ccjfkP1w.s:615    .text:00000000000002cc .L0 
     /tmp/ccjfkP1w.s:620    .text:00000000000002d0 .L0 
     /tmp/ccjfkP1w.s:621    .text:00000000000002d0 .L0 
     /tmp/ccjfkP1w.s:626    .text:00000000000002d8 .L0 
     /tmp/ccjfkP1w.s:627    .text:00000000000002d8 .L0 
GAS LISTING /tmp/ccjfkP1w.s 			page 24


     /tmp/ccjfkP1w.s:629    .text:00000000000002e0 .L0 
     /tmp/ccjfkP1w.s:631    .text:00000000000002e4 .L0 
     /tmp/ccjfkP1w.s:632    .text:00000000000002e4 .L0 
     /tmp/ccjfkP1w.s:634    .text:00000000000002e8 .L0 
     /tmp/ccjfkP1w.s:636    .text:00000000000002ec .L0 
     /tmp/ccjfkP1w.s:642    .text:00000000000002ec _ZN10SemaphoreKD2Ev
     /tmp/ccjfkP1w.s:645    .text:00000000000002ec .L0 
     /tmp/ccjfkP1w.s:649    .text:00000000000002ec .L0 
     /tmp/ccjfkP1w.s:650    .text:00000000000002f0 .L0 
     /tmp/ccjfkP1w.s:655    .text:0000000000000300 .L0 
     /tmp/ccjfkP1w.s:656    .text:0000000000000300 .L0 
     /tmp/ccjfkP1w.s:657    .text:0000000000000300 .L0 
     /tmp/ccjfkP1w.s:658    .text:0000000000000300 .L0 
     /tmp/ccjfkP1w.s:660    .text:0000000000000304 .L0 
     /tmp/ccjfkP1w.s:664    .text:0000000000000308 .L0 
     /tmp/ccjfkP1w.s:665    .text:0000000000000308 .L0 
     /tmp/ccjfkP1w.s:670    .text:000000000000030c .L0 
     /tmp/ccjfkP1w.s:673    .text:0000000000000310 .L0 
     /tmp/ccjfkP1w.s:676    .text:0000000000000314 .L0 
     /tmp/ccjfkP1w.s:678    .text:0000000000000318 .L0 
     /tmp/ccjfkP1w.s:680    .text:000000000000031c .L0 
     /tmp/ccjfkP1w.s:683    .text:0000000000000320 .L0 
     /tmp/ccjfkP1w.s:686    .text:0000000000000324 .L0 
     /tmp/ccjfkP1w.s:689    .text:000000000000032c .L0 
     /tmp/ccjfkP1w.s:693    .text:0000000000000330 .L0 
     /tmp/ccjfkP1w.s:698    .text:0000000000000338 .L0 
     /tmp/ccjfkP1w.s:707    .text:0000000000000340 .L0 
     /tmp/ccjfkP1w.s:710    .text:0000000000000344 .L0 
     /tmp/ccjfkP1w.s:713    .text:0000000000000348 .L0 
     /tmp/ccjfkP1w.s:719    .text:0000000000000350 .L0 
     /tmp/ccjfkP1w.s:720    .text:0000000000000350 .L0 
     /tmp/ccjfkP1w.s:722    .text:0000000000000354 .L0 
     /tmp/ccjfkP1w.s:724    .text:0000000000000358 .L0 
     /tmp/ccjfkP1w.s:730    .text:0000000000000360 .L0 
     /tmp/ccjfkP1w.s:731    .text:0000000000000360 .L0 
     /tmp/ccjfkP1w.s:732    .text:0000000000000360 .L0 
     /tmp/ccjfkP1w.s:739    .text:0000000000000364 .L0 
     /tmp/ccjfkP1w.s:740    .text:0000000000000364 .L0 
     /tmp/ccjfkP1w.s:741    .text:0000000000000364 .L0 
     /tmp/ccjfkP1w.s:747    .text:000000000000036c .L0 
     /tmp/ccjfkP1w.s:748    .text:000000000000036c .L0 
     /tmp/ccjfkP1w.s:752    .text:0000000000000378 .L0 
     /tmp/ccjfkP1w.s:753    .text:0000000000000378 .L0 
     /tmp/ccjfkP1w.s:758    .text:000000000000037c .L0 
     /tmp/ccjfkP1w.s:760    .text:0000000000000380 .L0 
     /tmp/ccjfkP1w.s:763    .text:0000000000000384 .L0 
     /tmp/ccjfkP1w.s:765    .text:0000000000000388 .L0 
     /tmp/ccjfkP1w.s:767    .text:000000000000038c .L0 
     /tmp/ccjfkP1w.s:775    .text:0000000000000394 .L0 
     /tmp/ccjfkP1w.s:776    .text:0000000000000398 .L0 
     /tmp/ccjfkP1w.s:778    .text:000000000000039c .L0 
     /tmp/ccjfkP1w.s:779    .text:000000000000039c .L0 
     /tmp/ccjfkP1w.s:781    .text:00000000000003a0 .L0 
     /tmp/ccjfkP1w.s:784    .text:00000000000003a4 .L0 
     /tmp/ccjfkP1w.s:787    .text:00000000000003a8 .L0 
     /tmp/ccjfkP1w.s:789    .text:00000000000003ac .L0 
     /tmp/ccjfkP1w.s:642    .text:00000000000002ec _ZN10SemaphoreKD1Ev
GAS LISTING /tmp/ccjfkP1w.s 			page 25


     /tmp/ccjfkP1w.s:804    .text:00000000000003ac _ZNK10SemaphoreK22getBlockedThreadsQueueEv
     /tmp/ccjfkP1w.s:807    .text:00000000000003ac .L0 
     /tmp/ccjfkP1w.s:809    .text:00000000000003ac .L0 
     /tmp/ccjfkP1w.s:810    .text:00000000000003b0 .L0 
     /tmp/ccjfkP1w.s:812    .text:00000000000003b4 .L0 
     /tmp/ccjfkP1w.s:814    .text:00000000000003b8 .L0 
     /tmp/ccjfkP1w.s:816    .text:00000000000003b8 .L0 
     /tmp/ccjfkP1w.s:817    .text:00000000000003b8 .L0 
     /tmp/ccjfkP1w.s:820    .text:00000000000003c0 .L0 
     /tmp/ccjfkP1w.s:821    .text:00000000000003c0 .L0 
     /tmp/ccjfkP1w.s:823    .text:00000000000003c4 .L0 
     /tmp/ccjfkP1w.s:825    .text:00000000000003c8 .L0 
     /tmp/ccjfkP1w.s:832    .text:00000000000003c8 .L0 
     /tmp/ccjfkP1w.s:495    .text:0000000000000238 .L0 
     /tmp/ccjfkP1w.s:514    .text:0000000000000254 .L0 
     /tmp/ccjfkP1w.s:241    .text:0000000000000118 .L17
     /tmp/ccjfkP1w.s:361    .text:000000000000019c .L19
     /tmp/ccjfkP1w.s:342    .text:0000000000000184 .L18
     /tmp/ccjfkP1w.s:444    .text:0000000000000200 .L25
     /tmp/ccjfkP1w.s:436    .text:00000000000001f8 .L27
     /tmp/ccjfkP1w.s:412    .text:00000000000001d4 .L24
     /tmp/ccjfkP1w.s:419    .text:00000000000001e0 .L22
     /tmp/ccjfkP1w.s:481    .text:0000000000000224 .L36
     /tmp/ccjfkP1w.s:552    .text:000000000000028c .L37
     /tmp/ccjfkP1w.s:537    .text:0000000000000278 .L29
     /tmp/ccjfkP1w.s:594    .text:00000000000002b4 .L44
     /tmp/ccjfkP1w.s:696    .text:0000000000000338 .L51
     /tmp/ccjfkP1w.s:691    .text:0000000000000330 .L53
     /tmp/ccjfkP1w.s:715    .text:0000000000000350 .L50
     /tmp/ccjfkP1w.s:681    .text:0000000000000320 .L47
     /tmp/ccjfkP1w.s:770    .text:0000000000000394 .L45
     /tmp/ccjfkP1w.s:708    .text:0000000000000344 .L49
     /tmp/ccjfkP1w.s:701    .text:0000000000000340 .L54
     /tmp/ccjfkP1w.s:208    .text:00000000000000dc .LEHB0
     /tmp/ccjfkP1w.s:185    .text:00000000000000bc .LFB29
     /tmp/ccjfkP1w.s:211    .text:00000000000000e4 .LEHE0
     /tmp/ccjfkP1w.s:222    .text:00000000000000f0 .LEHB1
     /tmp/ccjfkP1w.s:225    .text:00000000000000f8 .LEHE1
     /tmp/ccjfkP1w.s:227    .text:00000000000000fc .L13
     /tmp/ccjfkP1w.s:237    .text:0000000000000110 .LEHB2
     /tmp/ccjfkP1w.s:240    .text:0000000000000118 .LEHE2
     /tmp/ccjfkP1w.s:2579   .debug_abbrev:0000000000000000 .Ldebug_abbrev0
     /tmp/ccjfkP1w.s:4503   .debug_str:0000000000000761 .LASF131
     /tmp/ccjfkP1w.s:4447   .debug_str:00000000000005b9 .LASF132
     /tmp/ccjfkP1w.s:4427   .debug_str:0000000000000518 .LASF133
     /tmp/ccjfkP1w.s:5      .text:0000000000000000 .Ltext0
     /tmp/ccjfkP1w.s:828    .text:00000000000003c8 .Letext0
     /tmp/ccjfkP1w.s:4261   .debug_line:0000000000000000 .Ldebug_line0
     /tmp/ccjfkP1w.s:4417   .debug_str:00000000000004b3 .LASF0
     /tmp/ccjfkP1w.s:4433   .debug_str:0000000000000547 .LASF1
     /tmp/ccjfkP1w.s:4399   .debug_str:000000000000043b .LASF2
     /tmp/ccjfkP1w.s:4357   .debug_str:0000000000000308 .LASF4
     /tmp/ccjfkP1w.s:4485   .debug_str:00000000000006b8 .LASF3
     /tmp/ccjfkP1w.s:4289   .debug_str:00000000000000d7 .LASF5
     /tmp/ccjfkP1w.s:4437   .debug_str:0000000000000579 .LASF6
     /tmp/ccjfkP1w.s:4415   .debug_str:00000000000004a0 .LASF7
     /tmp/ccjfkP1w.s:4519   .debug_str:0000000000000899 .LASF8
GAS LISTING /tmp/ccjfkP1w.s 			page 26


     /tmp/ccjfkP1w.s:4341   .debug_str:0000000000000288 .LASF9
     /tmp/ccjfkP1w.s:4453   .debug_str:00000000000005ef .LASF10
     /tmp/ccjfkP1w.s:4509   .debug_str:0000000000000843 .LASF11
     /tmp/ccjfkP1w.s:4291   .debug_str:00000000000000de .LASF12
     /tmp/ccjfkP1w.s:4267   .debug_str:000000000000000d .LASF13
     /tmp/ccjfkP1w.s:4301   .debug_str:0000000000000145 .LASF14
     /tmp/ccjfkP1w.s:4473   .debug_str:0000000000000661 .LASF15
     /tmp/ccjfkP1w.s:4313   .debug_str:0000000000000197 .LASF16
     /tmp/ccjfkP1w.s:4451   .debug_str:00000000000005e5 .LASF25
     /tmp/ccjfkP1w.s:4523   .debug_str:00000000000008c0 .LASF82
     /tmp/ccjfkP1w.s:4525   .debug_str:00000000000008d2 .LASF17
     /tmp/ccjfkP1w.s:4507   .debug_str:0000000000000831 .LASF19
     /tmp/ccjfkP1w.s:4335   .debug_str:000000000000025c .LASF18
     /tmp/ccjfkP1w.s:4353   .debug_str:00000000000002f1 .LASF20
     /tmp/ccjfkP1w.s:4493   .debug_str:0000000000000708 .LASF21
     /tmp/ccjfkP1w.s:4421   .debug_str:00000000000004dc .LASF23
     /tmp/ccjfkP1w.s:4497   .debug_str:000000000000072e .LASF22
     /tmp/ccjfkP1w.s:4471   .debug_str:000000000000064e .LASF24
     /tmp/ccjfkP1w.s:4351   .debug_str:00000000000002dd .LASF134
     /tmp/ccjfkP1w.s:4383   .debug_str:00000000000003ab .LASF135
     /tmp/ccjfkP1w.s:4371   .debug_str:0000000000000350 .LASF26
     /tmp/ccjfkP1w.s:4511   .debug_str:0000000000000852 .LASF29
     /tmp/ccjfkP1w.s:4467   .debug_str:0000000000000632 .LASF27
     /tmp/ccjfkP1w.s:4539   .debug_str:0000000000000938 .LASF28
     /tmp/ccjfkP1w.s:4329   .debug_str:0000000000000208 .LASF30
     /tmp/ccjfkP1w.s:4317   .debug_str:00000000000001b3 .LASF31
     /tmp/ccjfkP1w.s:4393   .debug_str:00000000000003ff .LASF32
     /tmp/ccjfkP1w.s:4355   .debug_str:0000000000000303 .LASF33
     /tmp/ccjfkP1w.s:4377   .debug_str:0000000000000381 .LASF35
     /tmp/ccjfkP1w.s:4285   .debug_str:00000000000000ac .LASF40
     /tmp/ccjfkP1w.s:4411   .debug_str:0000000000000485 .LASF136
     /tmp/ccjfkP1w.s:4469   .debug_str:0000000000000637 .LASF137
     /tmp/ccjfkP1w.s:4501   .debug_str:0000000000000758 .LASF34
     /tmp/ccjfkP1w.s:4483   .debug_str:000000000000069b .LASF36
     /tmp/ccjfkP1w.s:4339   .debug_str:0000000000000280 .LASF37
     /tmp/ccjfkP1w.s:4419   .debug_str:00000000000004c0 .LASF38
     /tmp/ccjfkP1w.s:4505   .debug_str:0000000000000825 .LASF39
     /tmp/ccjfkP1w.s:4423   .debug_str:00000000000004ef .LASF41
     /tmp/ccjfkP1w.s:4297   .debug_str:0000000000000113 .LASF42
     /tmp/ccjfkP1w.s:4281   .debug_str:0000000000000086 .LASF43
     /tmp/ccjfkP1w.s:4425   .debug_str:000000000000050d .LASF44
     /tmp/ccjfkP1w.s:4327   .debug_str:00000000000001eb .LASF45
     /tmp/ccjfkP1w.s:4379   .debug_str:0000000000000394 .LASF46
     /tmp/ccjfkP1w.s:4375   .debug_str:0000000000000367 .LASF47
     /tmp/ccjfkP1w.s:4275   .debug_str:0000000000000058 .LASF48
     /tmp/ccjfkP1w.s:4463   .debug_str:0000000000000628 .LASF49
     /tmp/ccjfkP1w.s:4293   .debug_str:00000000000000ee .LASF50
     /tmp/ccjfkP1w.s:4439   .debug_str:000000000000058c .LASF51
     /tmp/ccjfkP1w.s:4499   .debug_str:0000000000000741 .LASF52
     /tmp/ccjfkP1w.s:4273   .debug_str:000000000000004e .LASF53
     /tmp/ccjfkP1w.s:4369   .debug_str:000000000000033b .LASF54
     /tmp/ccjfkP1w.s:4491   .debug_str:00000000000006f2 .LASF55
     /tmp/ccjfkP1w.s:4395   .debug_str:0000000000000404 .LASF56
     /tmp/ccjfkP1w.s:4367   .debug_str:0000000000000334 .LASF57
     /tmp/ccjfkP1w.s:4279   .debug_str:0000000000000074 .LASF58
     /tmp/ccjfkP1w.s:4401   .debug_str:0000000000000449 .LASF59
     /tmp/ccjfkP1w.s:4521   .debug_str:00000000000008a9 .LASF60
GAS LISTING /tmp/ccjfkP1w.s 			page 27


     /tmp/ccjfkP1w.s:4361   .debug_str:000000000000031b .LASF61
     /tmp/ccjfkP1w.s:4457   .debug_str:0000000000000608 .LASF62
     /tmp/ccjfkP1w.s:4527   .debug_str:00000000000008df .LASF63
     /tmp/ccjfkP1w.s:4543   .debug_str:000000000000094d .LASF64
     /tmp/ccjfkP1w.s:4391   .debug_str:00000000000003f2 .LASF65
     /tmp/ccjfkP1w.s:4333   .debug_str:0000000000000243 .LASF66
     /tmp/ccjfkP1w.s:4373   .debug_str:000000000000035a .LASF67
     /tmp/ccjfkP1w.s:4545   .debug_str:000000000000096f .LASF68
     /tmp/ccjfkP1w.s:4465   .debug_str:000000000000062d .LASF138
     /tmp/ccjfkP1w.s:4323   .debug_str:00000000000001d8 .LASF139
     /tmp/ccjfkP1w.s:4495   .debug_str:0000000000000718 .LASF140
     /tmp/ccjfkP1w.s:4365   .debug_str:000000000000032f .LASF69
     /tmp/ccjfkP1w.s:4303   .debug_str:0000000000000151 .LASF70
     /tmp/ccjfkP1w.s:4479   .debug_str:000000000000068e .LASF71
     /tmp/ccjfkP1w.s:4429   .debug_str:0000000000000538 .LASF72
     /tmp/ccjfkP1w.s:4363   .debug_str:0000000000000326 .LASF73
     /tmp/ccjfkP1w.s:4263   .debug_str:0000000000000000 .LASF74
     /tmp/ccjfkP1w.s:4403   .debug_str:0000000000000455 .LASF75
     /tmp/ccjfkP1w.s:4381   .debug_str:000000000000039d .LASF78
     /tmp/ccjfkP1w.s:4449   .debug_str:00000000000005cc .LASF80
     /tmp/ccjfkP1w.s:4309   .debug_str:0000000000000171 .LASF76
     /tmp/ccjfkP1w.s:4299   .debug_str:000000000000011d .LASF77
     /tmp/ccjfkP1w.s:4531   .debug_str:0000000000000903 .LASF79
     /tmp/ccjfkP1w.s:4349   .debug_str:00000000000002ca .LASF81
     /tmp/ccjfkP1w.s:4487   .debug_str:00000000000006ca .LASF83
     /tmp/ccjfkP1w.s:4359   .debug_str:000000000000030f .LASF84
     /tmp/ccjfkP1w.s:4305   .debug_str:0000000000000157 .LASF85
     /tmp/ccjfkP1w.s:4535   .debug_str:0000000000000923 .LASF86
     /tmp/ccjfkP1w.s:4529   .debug_str:00000000000008f6 .LASF110
     /tmp/ccjfkP1w.s:4431   .debug_str:0000000000000542 .LASF87
     /tmp/ccjfkP1w.s:4325   .debug_str:00000000000001e0 .LASF88
     /tmp/ccjfkP1w.s:4345   .debug_str:00000000000002aa .LASF89
     /tmp/ccjfkP1w.s:4347   .debug_str:00000000000002b6 .LASF90
     /tmp/ccjfkP1w.s:4307   .debug_str:0000000000000163 .LASF91
     /tmp/ccjfkP1w.s:4385   .debug_str:00000000000003c3 .LASF92
     /tmp/ccjfkP1w.s:4461   .debug_str:0000000000000623 .LASF93
     /tmp/ccjfkP1w.s:4489   .debug_str:00000000000006db .LASF94
     /tmp/ccjfkP1w.s:4445   .debug_str:00000000000005b2 .LASF95
     /tmp/ccjfkP1w.s:4295   .debug_str:00000000000000fa .LASF96
     /tmp/ccjfkP1w.s:4389   .debug_str:00000000000003eb .LASF97
     /tmp/ccjfkP1w.s:4319   .debug_str:00000000000001b8 .LASF98
     /tmp/ccjfkP1w.s:4321   .debug_str:00000000000001d2 .LASF99
     /tmp/ccjfkP1w.s:4331   .debug_str:0000000000000227 .LASF100
     /tmp/ccjfkP1w.s:4477   .debug_str:0000000000000686 .LASF101
     /tmp/ccjfkP1w.s:4517   .debug_str:000000000000087f .LASF102
     /tmp/ccjfkP1w.s:4533   .debug_str:000000000000090c .LASF103
     /tmp/ccjfkP1w.s:4269   .debug_str:000000000000001d .LASF104
     /tmp/ccjfkP1w.s:4287   .debug_str:00000000000000c3 .LASF105
     /tmp/ccjfkP1w.s:4277   .debug_str:0000000000000060 .LASF106
     /tmp/ccjfkP1w.s:4405   .debug_str:000000000000045e .LASF107
     /tmp/ccjfkP1w.s:4343   .debug_str:0000000000000296 .LASF108
     /tmp/ccjfkP1w.s:4513   .debug_str:0000000000000857 .LASF109
     /tmp/ccjfkP1w.s:4397   .debug_str:0000000000000426 .LASF111
     /tmp/ccjfkP1w.s:4459   .debug_str:000000000000061e .LASF112
     /tmp/ccjfkP1w.s:4435   .debug_str:000000000000055a .LASF114
     /tmp/ccjfkP1w.s:4265   .debug_str:0000000000000008 .LASF113
     /tmp/ccjfkP1w.s:4515   .debug_str:000000000000086c .LASF115
GAS LISTING /tmp/ccjfkP1w.s 			page 28


     /tmp/ccjfkP1w.s:805    .text:00000000000003ac .LFB37
     /tmp/ccjfkP1w.s:826    .text:00000000000003c8 .LFE37
     /tmp/ccjfkP1w.s:3714   .debug_loc:0000000000000000 .LLST43
     /tmp/ccjfkP1w.s:4455   .debug_str:00000000000005fe .LASF116
     /tmp/ccjfkP1w.s:4413   .debug_str:000000000000048f .LASF117
     /tmp/ccjfkP1w.s:4441   .debug_str:0000000000000597 .LASF141
     /tmp/ccjfkP1w.s:643    .text:00000000000002ec .LFB35
     /tmp/ccjfkP1w.s:790    .text:00000000000003ac .LFE35
     /tmp/ccjfkP1w.s:3728   .debug_loc:0000000000000039 .LLST31
     /tmp/ccjfkP1w.s:750    .text:0000000000000378 .LVL70
     /tmp/ccjfkP1w.s:662    .text:0000000000000308 .LBB69
     /tmp/ccjfkP1w.s:773    .text:0000000000000394 .LBE69
     /tmp/ccjfkP1w.s:3746   .debug_loc:0000000000000085 .LLST32
     /tmp/ccjfkP1w.s:667    .text:000000000000030c .LBB70
     /tmp/ccjfkP1w.s:703    .text:0000000000000340 .LBE70
     /tmp/ccjfkP1w.s:3757   .debug_loc:00000000000000bb .LLST33
     /tmp/ccjfkP1w.s:3768   .debug_loc:00000000000000f1 .LLST34
     /tmp/ccjfkP1w.s:3779   .debug_loc:0000000000000127 .LLST35
     /tmp/ccjfkP1w.s:687    .text:000000000000032c .LVL61
     /tmp/ccjfkP1w.s:704    .text:0000000000000340 .LBB72
     /tmp/ccjfkP1w.s:4235   .debug_ranges:0000000000000000 .Ldebug_ranges0
     /tmp/ccjfkP1w.s:3786   .debug_loc:000000000000014a .LLST36
     /tmp/ccjfkP1w.s:3797   .debug_loc:0000000000000180 .LLST37
     /tmp/ccjfkP1w.s:3808   .debug_loc:00000000000001b6 .LLST38
     /tmp/ccjfkP1w.s:714    .text:0000000000000350 .LVL66
     /tmp/ccjfkP1w.s:728    .text:0000000000000360 .LBB75
     /tmp/ccjfkP1w.s:735    .text:0000000000000364 .LBE75
     /tmp/ccjfkP1w.s:3815   .debug_loc:00000000000001d9 .LLST39
     /tmp/ccjfkP1w.s:3823   .debug_loc:00000000000001fd .LLST40
     /tmp/ccjfkP1w.s:737    .text:0000000000000364 .LBB77
     /tmp/ccjfkP1w.s:745    .text:000000000000036c .LBE77
     /tmp/ccjfkP1w.s:3830   .debug_loc:0000000000000220 .LLST41
     /tmp/ccjfkP1w.s:3838   .debug_loc:0000000000000244 .LLST42
     /tmp/ccjfkP1w.s:574    .text:0000000000000298 .LFB33
     /tmp/ccjfkP1w.s:637    .text:00000000000002ec .LFE33
     /tmp/ccjfkP1w.s:3845   .debug_loc:0000000000000267 .LLST27
     /tmp/ccjfkP1w.s:605    .text:00000000000002c4 .LBB65
     /tmp/ccjfkP1w.s:623    .text:00000000000002d8 .LBE65
     /tmp/ccjfkP1w.s:4541   .debug_str:000000000000093d .LASF118
     /tmp/ccjfkP1w.s:3870   .debug_loc:00000000000002c9 .LLST28
     /tmp/ccjfkP1w.s:611    .text:00000000000002cc .LBB66
     /tmp/ccjfkP1w.s:618    .text:00000000000002d0 .LBE66
     /tmp/ccjfkP1w.s:3877   .debug_loc:00000000000002ec .LLST29
     /tmp/ccjfkP1w.s:3885   .debug_loc:0000000000000310 .LLST30
     /tmp/ccjfkP1w.s:609    .text:00000000000002cc .LVL53
     /tmp/ccjfkP1w.s:622    .text:00000000000002d8 .LVL55
     /tmp/ccjfkP1w.s:459    .text:0000000000000208 .LFB32
     /tmp/ccjfkP1w.s:568    .text:0000000000000298 .LFE32
     /tmp/ccjfkP1w.s:3892   .debug_loc:0000000000000333 .LLST20
     /tmp/ccjfkP1w.s:4387   .debug_str:00000000000003e4 .LASF119
     /tmp/ccjfkP1w.s:3917   .debug_loc:0000000000000395 .LLST21
     /tmp/ccjfkP1w.s:498    .text:0000000000000244 .LBB58
     /tmp/ccjfkP1w.s:507    .text:000000000000024c .LBE58
     /tmp/ccjfkP1w.s:3949   .debug_loc:000000000000041c .LLST22
     /tmp/ccjfkP1w.s:3957   .debug_loc:0000000000000440 .LLST23
     /tmp/ccjfkP1w.s:524    .text:000000000000026c .LBB60
     /tmp/ccjfkP1w.s:531    .text:0000000000000270 .LBE60
GAS LISTING /tmp/ccjfkP1w.s 			page 29


     /tmp/ccjfkP1w.s:3964   .debug_loc:0000000000000463 .LLST24
     /tmp/ccjfkP1w.s:555    .text:000000000000028c .LBB62
     /tmp/ccjfkP1w.s:562    .text:0000000000000290 .LBE62
     /tmp/ccjfkP1w.s:3971   .debug_loc:0000000000000486 .LLST25
     /tmp/ccjfkP1w.s:3979   .debug_loc:00000000000004aa .LLST26
     /tmp/ccjfkP1w.s:511    .text:0000000000000254 .LVL43
     /tmp/ccjfkP1w.s:519    .text:0000000000000268 .LVL44
     /tmp/ccjfkP1w.s:380    .text:00000000000001a8 .LFB31
     /tmp/ccjfkP1w.s:453    .text:0000000000000208 .LFE31
     /tmp/ccjfkP1w.s:3986   .debug_loc:00000000000004cd .LLST16
     /tmp/ccjfkP1w.s:398    .text:00000000000001c0 .LBB54
     /tmp/ccjfkP1w.s:4000   .debug_loc:0000000000000506 .LLST17
     /tmp/ccjfkP1w.s:4011   .debug_loc:000000000000053c .LLST18
     /tmp/ccjfkP1w.s:4022   .debug_loc:0000000000000572 .LLST19
     /tmp/ccjfkP1w.s:418    .text:00000000000001e0 .LVL34
     /tmp/ccjfkP1w.s:298    .text:0000000000000140 .LFB30
     /tmp/ccjfkP1w.s:374    .text:00000000000001a8 .LFE30
     /tmp/ccjfkP1w.s:4029   .debug_loc:0000000000000595 .LLST9
     /tmp/ccjfkP1w.s:4443   .debug_str:00000000000005ab .LASF120
     /tmp/ccjfkP1w.s:4043   .debug_loc:00000000000005ce .LLST10
     /tmp/ccjfkP1w.s:318    .text:0000000000000160 .LBB48
     /tmp/ccjfkP1w.s:4065   .debug_loc:000000000000062d .LLST11
     /tmp/ccjfkP1w.s:4080   .debug_loc:0000000000000676 .LLST12
     /tmp/ccjfkP1w.s:325    .text:000000000000016c .LBB50
     /tmp/ccjfkP1w.s:332    .text:0000000000000174 .LBE50
     /tmp/ccjfkP1w.s:4091   .debug_loc:00000000000006ac .LLST13
     /tmp/ccjfkP1w.s:4099   .debug_loc:00000000000006d0 .LLST14
     /tmp/ccjfkP1w.s:4106   .debug_loc:00000000000006f3 .LLST15
     /tmp/ccjfkP1w.s:324    .text:000000000000016c .LVL23
     /tmp/ccjfkP1w.s:273    .text:0000000000000140 .LFE29
     /tmp/ccjfkP1w.s:4481   .debug_str:0000000000000696 .LASF121
     /tmp/ccjfkP1w.s:4113   .debug_loc:0000000000000716 .LLST5
     /tmp/ccjfkP1w.s:214    .text:00000000000000e8 .LBB42
     /tmp/ccjfkP1w.s:4127   .debug_loc:000000000000074f .LLST6
     /tmp/ccjfkP1w.s:4138   .debug_loc:0000000000000785 .LLST7
     /tmp/ccjfkP1w.s:244    .text:0000000000000118 .LBB44
     /tmp/ccjfkP1w.s:252    .text:0000000000000120 .LBE44
     /tmp/ccjfkP1w.s:4145   .debug_loc:00000000000007a8 .LLST8
     /tmp/ccjfkP1w.s:224    .text:00000000000000f8 .LVL14
     /tmp/ccjfkP1w.s:210    .text:00000000000000e4 .LVL12
     /tmp/ccjfkP1w.s:235    .text:000000000000010c .LVL16
     /tmp/ccjfkP1w.s:239    .text:0000000000000118 .LVL17
     /tmp/ccjfkP1w.s:144    .text:0000000000000094 .LFB28
     /tmp/ccjfkP1w.s:172    .text:00000000000000bc .LFE28
     /tmp/ccjfkP1w.s:4152   .debug_loc:00000000000007cb .LLST4
     /tmp/ccjfkP1w.s:161    .text:00000000000000ac .LVL9
     /tmp/ccjfkP1w.s:102    .text:000000000000006c .LFB27
     /tmp/ccjfkP1w.s:130    .text:0000000000000094 .LFE27
     /tmp/ccjfkP1w.s:4166   .debug_loc:0000000000000804 .LLST3
     /tmp/ccjfkP1w.s:119    .text:0000000000000084 .LVL7
     /tmp/ccjfkP1w.s:70     .text:0000000000000044 .LFB26
     /tmp/ccjfkP1w.s:96     .text:000000000000006c .LFE26
     /tmp/ccjfkP1w.s:4180   .debug_loc:000000000000083d .LLST2
     /tmp/ccjfkP1w.s:85     .text:000000000000005c .LVL5
     /tmp/ccjfkP1w.s:38     .text:000000000000001c .LFB25
     /tmp/ccjfkP1w.s:64     .text:0000000000000044 .LFE25
     /tmp/ccjfkP1w.s:4194   .debug_loc:0000000000000876 .LLST1
GAS LISTING /tmp/ccjfkP1w.s 			page 30


     /tmp/ccjfkP1w.s:53     .text:0000000000000034 .LVL3
     /tmp/ccjfkP1w.s:10     .text:0000000000000000 .LFB24
     /tmp/ccjfkP1w.s:32     .text:000000000000001c .LFE24
     /tmp/ccjfkP1w.s:4208   .debug_loc:00000000000008af .LLST0
     /tmp/ccjfkP1w.s:4537   .debug_str:0000000000000930 .LASF122
     /tmp/ccjfkP1w.s:4337   .debug_str:000000000000026c .LASF123
     /tmp/ccjfkP1w.s:4315   .debug_str:00000000000001ad .LASF124
     /tmp/ccjfkP1w.s:4409   .debug_str:000000000000047e .LASF125
     /tmp/ccjfkP1w.s:4271   .debug_str:0000000000000048 .LASF126
     /tmp/ccjfkP1w.s:4475   .debug_str:0000000000000677 .LASF127
     /tmp/ccjfkP1w.s:4311   .debug_str:000000000000017f .LASF128
     /tmp/ccjfkP1w.s:4283   .debug_str:00000000000000a1 .LASF129
     /tmp/ccjfkP1w.s:4407   .debug_str:0000000000000472 .LASF130
     /tmp/ccjfkP1w.s:808    .text:00000000000003ac .LVL76
     /tmp/ccjfkP1w.s:818    .text:00000000000003bc .LVL77
     /tmp/ccjfkP1w.s:648    .text:00000000000002ec .LVL56
     /tmp/ccjfkP1w.s:671    .text:0000000000000310 .LVL58
     /tmp/ccjfkP1w.s:785    .text:00000000000003a4 .LVL75
     /tmp/ccjfkP1w.s:700    .text:0000000000000340 .LVL64
     /tmp/ccjfkP1w.s:711    .text:0000000000000348 .LVL65
     /tmp/ccjfkP1w.s:782    .text:00000000000003a0 .LVL74
     /tmp/ccjfkP1w.s:666    .text:000000000000030c .LVL57
     /tmp/ccjfkP1w.s:690    .text:0000000000000330 .LVL62
     /tmp/ccjfkP1w.s:674    .text:0000000000000314 .LVL59
     /tmp/ccjfkP1w.s:695    .text:0000000000000338 .LVL63
     /tmp/ccjfkP1w.s:684    .text:0000000000000324 .LVL60
     /tmp/ccjfkP1w.s:754    .text:000000000000037c .LVL71
     /tmp/ccjfkP1w.s:769    .text:0000000000000394 .LVL73
     /tmp/ccjfkP1w.s:761    .text:0000000000000384 .LVL72
     /tmp/ccjfkP1w.s:727    .text:0000000000000360 .LVL67
     /tmp/ccjfkP1w.s:733    .text:0000000000000364 .LVL68
     /tmp/ccjfkP1w.s:743    .text:000000000000036c .LVL69
     /tmp/ccjfkP1w.s:577    .text:0000000000000298 .LVL50
     /tmp/ccjfkP1w.s:591    .text:00000000000002b0 .LVL51
     /tmp/ccjfkP1w.s:593    .text:00000000000002b4 .LVL52
     /tmp/ccjfkP1w.s:616    .text:00000000000002d0 .LVL54
     /tmp/ccjfkP1w.s:462    .text:0000000000000208 .LVL38
     /tmp/ccjfkP1w.s:476    .text:0000000000000220 .LVL39
     /tmp/ccjfkP1w.s:480    .text:0000000000000224 .LVL40
     /tmp/ccjfkP1w.s:536    .text:0000000000000278 .LVL47
     /tmp/ccjfkP1w.s:551    .text:000000000000028c .LVL48
     /tmp/ccjfkP1w.s:560    .text:0000000000000290 .LVL49
     /tmp/ccjfkP1w.s:497    .text:0000000000000244 .LVL41
     /tmp/ccjfkP1w.s:505    .text:000000000000024c .LVL42
     /tmp/ccjfkP1w.s:523    .text:000000000000026c .LVL45
     /tmp/ccjfkP1w.s:529    .text:0000000000000270 .LVL46
     /tmp/ccjfkP1w.s:383    .text:00000000000001a8 .LVL29
     /tmp/ccjfkP1w.s:402    .text:00000000000001c4 .LVL31
     /tmp/ccjfkP1w.s:397    .text:00000000000001c0 .LVL30
     /tmp/ccjfkP1w.s:435    .text:00000000000001f8 .LVL35
     /tmp/ccjfkP1w.s:447    .text:0000000000000204 .LVL37
     /tmp/ccjfkP1w.s:405    .text:00000000000001c8 .LVL32
     /tmp/ccjfkP1w.s:443    .text:0000000000000200 .LVL36
     /tmp/ccjfkP1w.s:415    .text:00000000000001d8 .LVL33
     /tmp/ccjfkP1w.s:301    .text:0000000000000140 .LVL20
     /tmp/ccjfkP1w.s:322    .text:0000000000000164 .LVL22
     /tmp/ccjfkP1w.s:354    .text:0000000000000190 .LVL26
GAS LISTING /tmp/ccjfkP1w.s 			page 31


     /tmp/ccjfkP1w.s:360    .text:000000000000019c .LVL27
     /tmp/ccjfkP1w.s:317    .text:0000000000000160 .LVL21
     /tmp/ccjfkP1w.s:341    .text:0000000000000184 .LVL25
     /tmp/ccjfkP1w.s:368    .text:00000000000001a4 .LVL28
     /tmp/ccjfkP1w.s:330    .text:0000000000000174 .LVL24
     /tmp/ccjfkP1w.s:190    .text:00000000000000bc .LVL10
     /tmp/ccjfkP1w.s:207    .text:00000000000000dc .LVL11
     /tmp/ccjfkP1w.s:213    .text:00000000000000e8 .LVL13
     /tmp/ccjfkP1w.s:229    .text:0000000000000100 .LVL15
     /tmp/ccjfkP1w.s:255    .text:0000000000000124 .LVL19
     /tmp/ccjfkP1w.s:250    .text:0000000000000120 .LVL18
     /tmp/ccjfkP1w.s:149    .text:0000000000000094 .LVL8
     /tmp/ccjfkP1w.s:107    .text:000000000000006c .LVL6
     /tmp/ccjfkP1w.s:73     .text:0000000000000044 .LVL4
     /tmp/ccjfkP1w.s:41     .text:000000000000001c .LVL2
     /tmp/ccjfkP1w.s:14     .text:0000000000000000 .LVL0
     /tmp/ccjfkP1w.s:24     .text:0000000000000010 .LVL1
     /tmp/ccjfkP1w.s:833    .debug_info:0000000000000000 .Ldebug_info0
     /tmp/ccjfkP1w.s:231    .text:0000000000000100 .LBE42
     /tmp/ccjfkP1w.s:242    .text:0000000000000118 .LBB47
     /tmp/ccjfkP1w.s:257    .text:0000000000000124 .LBE47
     /tmp/ccjfkP1w.s:344    .text:0000000000000184 .LBE48
     /tmp/ccjfkP1w.s:363    .text:000000000000019c .LBB53
     /tmp/ccjfkP1w.s:370    .text:00000000000001a4 .LBE53
     /tmp/ccjfkP1w.s:421    .text:00000000000001e0 .LBE54
     /tmp/ccjfkP1w.s:438    .text:00000000000001f8 .LBB57
     /tmp/ccjfkP1w.s:449    .text:0000000000000204 .LBE57
     /tmp/ccjfkP1w.s:717    .text:0000000000000350 .LBE72
     /tmp/ccjfkP1w.s:755    .text:000000000000037c .LBB79
     /tmp/ccjfkP1w.s:772    .text:0000000000000394 .LBE79
     /tmp/ccjfkP1w.s:133    .gcc_except_table:0000000000000000 .LLSDA27
     /tmp/ccjfkP1w.s:174    .gcc_except_table:0000000000000004 .LLSDA28
     /tmp/ccjfkP1w.s:275    .gcc_except_table:0000000000000008 .LLSDA29
     /tmp/ccjfkP1w.s:792    .gcc_except_table:0000000000000033 .LLSDA35

UNDEFINED SYMBOLS
__mem_alloc
__mem_free
__gxx_personality_v0
_Znwm
_Unwind_Resume
_ZdlPv
_ZN3PCB7runningE
_ZN3PCB16timeSliceCounterE
_ZN3PCB8dispatchEv
_ZN9Scheduler3putEP3PCB
