GAS LISTING /tmp/ccbuEeO6.s 			page 1


   1              		.file	"syscall_cpp.cpp"
   2              		.option pic
   3              		.option norelax
   4              		.text
   5              	.Ltext0:
   6              		.section	.text._ZN6Thread3runEv,"axG",@progbits,_ZN6Thread3runEv,comdat
   7              		.align	2
   8              		.weak	_ZN6Thread3runEv
  10              	_ZN6Thread3runEv:
  11              	.LFB24:
  12              		.file 1 "src/../h/syscall_cpp.hpp"
   1:src/../h/syscall_cpp.hpp **** #ifndef _syscall_cpp
   2:src/../h/syscall_cpp.hpp **** #define _syscall_cpp
   3:src/../h/syscall_cpp.hpp **** 
   4:src/../h/syscall_cpp.hpp **** #include "syscall_c.h"
   5:src/../h/syscall_cpp.hpp **** 
   6:src/../h/syscall_cpp.hpp **** void* operator new(size_t);
   7:src/../h/syscall_cpp.hpp **** void operator delete(void*);
   8:src/../h/syscall_cpp.hpp **** 
   9:src/../h/syscall_cpp.hpp **** class Thread {
  10:src/../h/syscall_cpp.hpp **** public:
  11:src/../h/syscall_cpp.hpp ****     Thread(void (*body)(void *), void *arg);
  12:src/../h/syscall_cpp.hpp **** 
  13:src/../h/syscall_cpp.hpp ****     virtual ~Thread();
  14:src/../h/syscall_cpp.hpp **** 
  15:src/../h/syscall_cpp.hpp ****     int start();
  16:src/../h/syscall_cpp.hpp **** 
  17:src/../h/syscall_cpp.hpp ****     static void dispatch();
  18:src/../h/syscall_cpp.hpp ****     //static int sleep(time_t);
  19:src/../h/syscall_cpp.hpp **** 
  20:src/../h/syscall_cpp.hpp **** protected:
  21:src/../h/syscall_cpp.hpp ****     Thread() : myHandle(nullptr) {}
  22:src/../h/syscall_cpp.hpp **** 
  23:src/../h/syscall_cpp.hpp ****     virtual void run() {}
  13              		.loc 1 23 18
  14              		.cfi_startproc
  15              	.LVL0:
  16 0000 130101FF 		addi	sp,sp,-16
  17              		.cfi_def_cfa_offset 16
  18 0004 23348100 		sd	s0,8(sp)
  19              		.cfi_offset 8, -8
  20 0008 13040101 		addi	s0,sp,16
  21              		.cfi_def_cfa 8, 0
  22              		.loc 1 23 25 is_stmt 0
  23 000c 03348100 		ld	s0,8(sp)
  24              		.cfi_restore 8
  25              		.cfi_def_cfa 2, 16
  26 0010 13010101 		addi	sp,sp,16
  27              		.cfi_def_cfa_offset 0
  28 0014 67800000 		jr	ra
  29              		.cfi_endproc
  30              	.LFE24:
  32              		.text
  33              		.align	2
  34              		.globl	_ZN6Thread7starterEPv
  36              	_ZN6Thread7starterEPv:
  37              	.LFB34:
GAS LISTING /tmp/ccbuEeO6.s 			page 2


  38              		.file 2 "src/syscall_cpp.cpp"
   1:src/syscall_cpp.cpp **** #include "../h/syscall_cpp.hpp"
   2:src/syscall_cpp.cpp **** 
   3:src/syscall_cpp.cpp **** Thread::Thread(void (*body)(void *), void *arg) {
   4:src/syscall_cpp.cpp ****     thread_create(&this->myHandle, body, arg);
   5:src/syscall_cpp.cpp **** }
   6:src/syscall_cpp.cpp **** 
   7:src/syscall_cpp.cpp **** Thread::~Thread() {
   8:src/syscall_cpp.cpp ****     ::delete myHandle;
   9:src/syscall_cpp.cpp **** }
  10:src/syscall_cpp.cpp **** 
  11:src/syscall_cpp.cpp **** int Thread::start() {
  12:src/syscall_cpp.cpp ****     if(!myHandle){
  13:src/syscall_cpp.cpp ****         return thread_create(&this->myHandle, &Thread::starter, this);
  14:src/syscall_cpp.cpp ****     }
  15:src/syscall_cpp.cpp ****     return -8;
  16:src/syscall_cpp.cpp **** }
  17:src/syscall_cpp.cpp **** 
  18:src/syscall_cpp.cpp **** void Thread::dispatch() {
  19:src/syscall_cpp.cpp ****     thread_dispatch();
  20:src/syscall_cpp.cpp **** }
  21:src/syscall_cpp.cpp **** 
  22:src/syscall_cpp.cpp **** void Thread::starter(void* toStart) {
  39              		.loc 2 22 37 is_stmt 1
  40              		.cfi_startproc
  41              	.LVL1:
  23:src/syscall_cpp.cpp ****     Thread *t=(Thread*)toStart;
  42              		.loc 2 23 5
  24:src/syscall_cpp.cpp ****     if(t)
  43              		.loc 2 24 5
  44 0000 63080502 		beqz	a0,.L6
  22:src/syscall_cpp.cpp ****     Thread *t=(Thread*)toStart;
  45              		.loc 2 22 37 is_stmt 0
  46 0004 130101FF 		addi	sp,sp,-16
  47              		.cfi_def_cfa_offset 16
  48 0008 23341100 		sd	ra,8(sp)
  49 000c 23308100 		sd	s0,0(sp)
  50              		.cfi_offset 1, -8
  51              		.cfi_offset 8, -16
  52 0010 13040101 		addi	s0,sp,16
  53              		.cfi_def_cfa 8, 0
  25:src/syscall_cpp.cpp ****         t->run();
  54              		.loc 2 25 9 is_stmt 1
  55              		.loc 2 25 16 is_stmt 0
  56 0014 83370500 		ld	a5,0(a0)
  57 0018 83B70701 		ld	a5,16(a5)
  58              		.loc 2 25 15
  59 001c E7800700 		jalr	a5
  60              	.LVL2:
  26:src/syscall_cpp.cpp **** }
  61              		.loc 2 26 1
  62 0020 83308100 		ld	ra,8(sp)
  63              		.cfi_restore 1
  64 0024 03340100 		ld	s0,0(sp)
  65              		.cfi_restore 8
  66              		.cfi_def_cfa 2, 16
  67 0028 13010101 		addi	sp,sp,16
GAS LISTING /tmp/ccbuEeO6.s 			page 3


  68              		.cfi_def_cfa_offset 0
  69 002c 67800000 		jr	ra
  70              	.LVL3:
  71              	.L6:
  72 0030 67800000 		ret
  73              		.cfi_endproc
  74              	.LFE34:
  76              		.align	2
  77              		.globl	_ZN9SemaphoreD2Ev
  79              	_ZN9SemaphoreD2Ev:
  80              	.LFB39:
  27:src/syscall_cpp.cpp **** 
  28:src/syscall_cpp.cpp **** 
  29:src/syscall_cpp.cpp **** Semaphore::Semaphore(unsigned int init) {
  30:src/syscall_cpp.cpp ****     sem_open(&myHandle,init);
  31:src/syscall_cpp.cpp **** }
  32:src/syscall_cpp.cpp **** 
  33:src/syscall_cpp.cpp **** Semaphore::~Semaphore() {
  81              		.loc 2 33 1 is_stmt 1
  82              		.cfi_startproc
  83              		.cfi_personality 0x9b,DW.ref.__gxx_personality_v0
  84              		.cfi_lsda 0x1b,.LLSDA39
  85              	.LVL4:
  86 0034 130101FF 		addi	sp,sp,-16
  87              		.cfi_def_cfa_offset 16
  88 0038 23341100 		sd	ra,8(sp)
  89 003c 23308100 		sd	s0,0(sp)
  90              		.cfi_offset 1, -8
  91              		.cfi_offset 8, -16
  92 0040 13040101 		addi	s0,sp,16
  93              		.cfi_def_cfa 8, 0
  94              	.LBB6:
  95              		.loc 2 33 23 is_stmt 0
  96 0044 97070000 		lla	a5,_ZTV9Semaphore+16
  96      93870700 
  97 004c 2330F500 		sd	a5,0(a0)
  34:src/syscall_cpp.cpp ****     sem_close(myHandle);
  98              		.loc 2 34 5 is_stmt 1
  99              		.loc 2 34 14 is_stmt 0
 100 0050 03358500 		ld	a0,8(a0)
 101              	.LVL5:
 102 0054 97000000 		call	_Z9sem_closeP10SemaphoreK@plt
 102      E7800000 
 103              	.LVL6:
 104              	.LBE6:
  35:src/syscall_cpp.cpp **** }
 105              		.loc 2 35 1
 106 005c 83308100 		ld	ra,8(sp)
 107              		.cfi_restore 1
 108 0060 03340100 		ld	s0,0(sp)
 109              		.cfi_restore 8
 110              		.cfi_def_cfa 2, 16
 111 0064 13010101 		addi	sp,sp,16
 112              		.cfi_def_cfa_offset 0
 113 0068 67800000 		jr	ra
 114              		.cfi_endproc
 115              	.LFE39:
GAS LISTING /tmp/ccbuEeO6.s 			page 4


 116              		.globl	__gxx_personality_v0
 117              		.section	.gcc_except_table,"a",@progbits
 118              	.LLSDA39:
 119 0000 FF       		.byte	0xff
 120 0001 FF       		.byte	0xff
 121 0002 03       		.byte	0x3
 122 0003 00       		.byte	0
 123              		.text
 125              		.globl	_ZN9SemaphoreD1Ev
 126              		.set	_ZN9SemaphoreD1Ev,_ZN9SemaphoreD2Ev
 127              		.align	2
 128              		.globl	_ZN6ThreadC2EPFvPvES0_
 130              	_ZN6ThreadC2EPFvPvES0_:
 131              	.LFB26:
   3:src/syscall_cpp.cpp ****     thread_create(&this->myHandle, body, arg);
 132              		.loc 2 3 1 is_stmt 1
 133              		.cfi_startproc
 134              	.LVL7:
 135 006c 130101FF 		addi	sp,sp,-16
 136              		.cfi_def_cfa_offset 16
 137 0070 23341100 		sd	ra,8(sp)
 138 0074 23308100 		sd	s0,0(sp)
 139              		.cfi_offset 1, -8
 140              		.cfi_offset 8, -16
 141 0078 13040101 		addi	s0,sp,16
 142              		.cfi_def_cfa 8, 0
 143              	.LBB7:
   3:src/syscall_cpp.cpp ****     thread_create(&this->myHandle, body, arg);
 144              		.loc 2 3 47 is_stmt 0
 145 007c 97070000 		lla	a5,_ZTV6Thread+16
 145      93870700 
 146 0084 2330F500 		sd	a5,0(a0)
   4:src/syscall_cpp.cpp **** }
 147              		.loc 2 4 5 is_stmt 1
   4:src/syscall_cpp.cpp **** }
 148              		.loc 2 4 18 is_stmt 0
 149 0088 13058500 		addi	a0,a0,8
 150              	.LVL8:
 151 008c 97000000 		call	_Z13thread_createPP3PCBPFvPvES2_@plt
 151      E7800000 
 152              	.LVL9:
 153              	.LBE7:
   5:src/syscall_cpp.cpp **** 
 154              		.loc 2 5 1
 155 0094 83308100 		ld	ra,8(sp)
 156              		.cfi_restore 1
 157 0098 03340100 		ld	s0,0(sp)
 158              		.cfi_restore 8
 159              		.cfi_def_cfa 2, 16
 160 009c 13010101 		addi	sp,sp,16
 161              		.cfi_def_cfa_offset 0
 162 00a0 67800000 		jr	ra
 163              		.cfi_endproc
 164              	.LFE26:
 166              		.globl	_ZN6ThreadC1EPFvPvES0_
 167              		.set	_ZN6ThreadC1EPFvPvES0_,_ZN6ThreadC2EPFvPvES0_
 168              		.align	2
GAS LISTING /tmp/ccbuEeO6.s 			page 5


 169              		.globl	_ZN6Thread5startEv
 171              	_ZN6Thread5startEv:
 172              	.LFB32:
  11:src/syscall_cpp.cpp ****     if(!myHandle){
 173              		.loc 2 11 21 is_stmt 1
 174              		.cfi_startproc
 175              	.LVL10:
  12:src/syscall_cpp.cpp ****         return thread_create(&this->myHandle, &Thread::starter, this);
 176              		.loc 2 12 5
  12:src/syscall_cpp.cpp ****         return thread_create(&this->myHandle, &Thread::starter, this);
 177              		.loc 2 12 9 is_stmt 0
 178 00a4 83378500 		ld	a5,8(a0)
  12:src/syscall_cpp.cpp ****         return thread_create(&this->myHandle, &Thread::starter, this);
 179              		.loc 2 12 5
 180 00a8 639E0702 		bnez	a5,.L15
  11:src/syscall_cpp.cpp ****     if(!myHandle){
 181              		.loc 2 11 21
 182 00ac 130101FF 		addi	sp,sp,-16
 183              		.cfi_def_cfa_offset 16
 184 00b0 23341100 		sd	ra,8(sp)
 185 00b4 23308100 		sd	s0,0(sp)
 186              		.cfi_offset 1, -8
 187              		.cfi_offset 8, -16
 188 00b8 13040101 		addi	s0,sp,16
 189              		.cfi_def_cfa 8, 0
  13:src/syscall_cpp.cpp ****     }
 190              		.loc 2 13 9 is_stmt 1
  13:src/syscall_cpp.cpp ****     }
 191              		.loc 2 13 29 is_stmt 0
 192 00bc 13060500 		mv	a2,a0
 193 00c0 97050000 		lla	a1,_ZN6Thread7starterEPv
 193      93850500 
 194 00c8 13058500 		addi	a0,a0,8
 195              	.LVL11:
 196 00cc 97000000 		call	_Z13thread_createPP3PCBPFvPvES2_@plt
 196      E7800000 
 197              	.LVL12:
  16:src/syscall_cpp.cpp **** 
 198              		.loc 2 16 1
 199 00d4 83308100 		ld	ra,8(sp)
 200              		.cfi_restore 1
 201 00d8 03340100 		ld	s0,0(sp)
 202              		.cfi_restore 8
 203              		.cfi_def_cfa 2, 16
 204 00dc 13010101 		addi	sp,sp,16
 205              		.cfi_def_cfa_offset 0
 206 00e0 67800000 		jr	ra
 207              	.LVL13:
 208              	.L15:
  15:src/syscall_cpp.cpp **** }
 209              		.loc 2 15 13
 210 00e4 130580FF 		li	a0,-8
 211              	.LVL14:
  16:src/syscall_cpp.cpp **** 
 212              		.loc 2 16 1
 213 00e8 67800000 		ret
 214              		.cfi_endproc
GAS LISTING /tmp/ccbuEeO6.s 			page 6


 215              	.LFE32:
 217              		.align	2
 218              		.globl	_ZN6Thread8dispatchEv
 220              	_ZN6Thread8dispatchEv:
 221              	.LFB33:
  18:src/syscall_cpp.cpp ****     thread_dispatch();
 222              		.loc 2 18 25 is_stmt 1
 223              		.cfi_startproc
 224 00ec 130101FF 		addi	sp,sp,-16
 225              		.cfi_def_cfa_offset 16
 226 00f0 23341100 		sd	ra,8(sp)
 227 00f4 23308100 		sd	s0,0(sp)
 228              		.cfi_offset 1, -8
 229              		.cfi_offset 8, -16
 230 00f8 13040101 		addi	s0,sp,16
 231              		.cfi_def_cfa 8, 0
  19:src/syscall_cpp.cpp **** }
 232              		.loc 2 19 5
  19:src/syscall_cpp.cpp **** }
 233              		.loc 2 19 20 is_stmt 0
 234 00fc 97000000 		call	_Z15thread_dispatchv@plt
 234      E7800000 
 235              	.LVL15:
  20:src/syscall_cpp.cpp **** 
 236              		.loc 2 20 1
 237 0104 83308100 		ld	ra,8(sp)
 238              		.cfi_restore 1
 239 0108 03340100 		ld	s0,0(sp)
 240              		.cfi_restore 8
 241              		.cfi_def_cfa 2, 16
 242 010c 13010101 		addi	sp,sp,16
 243              		.cfi_def_cfa_offset 0
 244 0110 67800000 		jr	ra
 245              		.cfi_endproc
 246              	.LFE33:
 248              		.align	2
 249              		.globl	_ZN9SemaphoreC2Ej
 251              	_ZN9SemaphoreC2Ej:
 252              	.LFB36:
  29:src/syscall_cpp.cpp ****     sem_open(&myHandle,init);
 253              		.loc 2 29 1 is_stmt 1
 254              		.cfi_startproc
 255              	.LVL16:
 256 0114 130101FF 		addi	sp,sp,-16
 257              		.cfi_def_cfa_offset 16
 258 0118 23341100 		sd	ra,8(sp)
 259 011c 23308100 		sd	s0,0(sp)
 260              		.cfi_offset 1, -8
 261              		.cfi_offset 8, -16
 262 0120 13040101 		addi	s0,sp,16
 263              		.cfi_def_cfa 8, 0
 264              	.LBB8:
  29:src/syscall_cpp.cpp ****     sem_open(&myHandle,init);
 265              		.loc 2 29 39 is_stmt 0
 266 0124 97070000 		lla	a5,_ZTV9Semaphore+16
 266      93870700 
 267 012c 2330F500 		sd	a5,0(a0)
GAS LISTING /tmp/ccbuEeO6.s 			page 7


  30:src/syscall_cpp.cpp **** }
 268              		.loc 2 30 5 is_stmt 1
  30:src/syscall_cpp.cpp **** }
 269              		.loc 2 30 13 is_stmt 0
 270 0130 13058500 		addi	a0,a0,8
 271              	.LVL17:
 272 0134 97000000 		call	_Z8sem_openPP10SemaphoreKj@plt
 272      E7800000 
 273              	.LVL18:
 274              	.LBE8:
  31:src/syscall_cpp.cpp **** 
 275              		.loc 2 31 1
 276 013c 83308100 		ld	ra,8(sp)
 277              		.cfi_restore 1
 278 0140 03340100 		ld	s0,0(sp)
 279              		.cfi_restore 8
 280              		.cfi_def_cfa 2, 16
 281 0144 13010101 		addi	sp,sp,16
 282              		.cfi_def_cfa_offset 0
 283 0148 67800000 		jr	ra
 284              		.cfi_endproc
 285              	.LFE36:
 287              		.globl	_ZN9SemaphoreC1Ej
 288              		.set	_ZN9SemaphoreC1Ej,_ZN9SemaphoreC2Ej
 289              		.align	2
 290              		.globl	_ZN9Semaphore4waitEv
 292              	_ZN9Semaphore4waitEv:
 293              	.LFB42:
  36:src/syscall_cpp.cpp **** 
  37:src/syscall_cpp.cpp **** int Semaphore::wait() {
 294              		.loc 2 37 23 is_stmt 1
 295              		.cfi_startproc
 296              	.LVL19:
 297 014c 130101FF 		addi	sp,sp,-16
 298              		.cfi_def_cfa_offset 16
 299 0150 23341100 		sd	ra,8(sp)
 300 0154 23308100 		sd	s0,0(sp)
 301              		.cfi_offset 1, -8
 302              		.cfi_offset 8, -16
 303 0158 13040101 		addi	s0,sp,16
 304              		.cfi_def_cfa 8, 0
  38:src/syscall_cpp.cpp ****     return sem_wait(myHandle);
 305              		.loc 2 38 5
 306              		.loc 2 38 20 is_stmt 0
 307 015c 03358500 		ld	a0,8(a0)
 308              	.LVL20:
 309 0160 97000000 		call	_Z8sem_waitP10SemaphoreK@plt
 309      E7800000 
 310              	.LVL21:
  39:src/syscall_cpp.cpp **** }
 311              		.loc 2 39 1
 312 0168 83308100 		ld	ra,8(sp)
 313              		.cfi_restore 1
 314 016c 03340100 		ld	s0,0(sp)
 315              		.cfi_restore 8
 316              		.cfi_def_cfa 2, 16
 317 0170 13010101 		addi	sp,sp,16
GAS LISTING /tmp/ccbuEeO6.s 			page 8


 318              		.cfi_def_cfa_offset 0
 319 0174 67800000 		jr	ra
 320              		.cfi_endproc
 321              	.LFE42:
 323              		.align	2
 324              		.globl	_ZN9Semaphore6signalEv
 326              	_ZN9Semaphore6signalEv:
 327              	.LFB43:
  40:src/syscall_cpp.cpp **** 
  41:src/syscall_cpp.cpp **** int Semaphore::signal() {
 328              		.loc 2 41 25 is_stmt 1
 329              		.cfi_startproc
 330              	.LVL22:
 331 0178 130101FF 		addi	sp,sp,-16
 332              		.cfi_def_cfa_offset 16
 333 017c 23341100 		sd	ra,8(sp)
 334 0180 23308100 		sd	s0,0(sp)
 335              		.cfi_offset 1, -8
 336              		.cfi_offset 8, -16
 337 0184 13040101 		addi	s0,sp,16
 338              		.cfi_def_cfa 8, 0
  42:src/syscall_cpp.cpp ****     return sem_signal(myHandle);
 339              		.loc 2 42 5
 340              		.loc 2 42 22 is_stmt 0
 341 0188 03358500 		ld	a0,8(a0)
 342              	.LVL23:
 343 018c 97000000 		call	_Z10sem_signalP10SemaphoreK@plt
 343      E7800000 
 344              	.LVL24:
  43:src/syscall_cpp.cpp **** }
 345              		.loc 2 43 1
 346 0194 83308100 		ld	ra,8(sp)
 347              		.cfi_restore 1
 348 0198 03340100 		ld	s0,0(sp)
 349              		.cfi_restore 8
 350              		.cfi_def_cfa 2, 16
 351 019c 13010101 		addi	sp,sp,16
 352              		.cfi_def_cfa_offset 0
 353 01a0 67800000 		jr	ra
 354              		.cfi_endproc
 355              	.LFE43:
 357              		.align	2
 358              		.globl	_Znwm
 360              	_Znwm:
 361              	.LFB44:
  44:src/syscall_cpp.cpp **** 
  45:src/syscall_cpp.cpp **** void *operator new(size_t n) {
 362              		.loc 2 45 30 is_stmt 1
 363              		.cfi_startproc
 364              	.LVL25:
 365 01a4 130101FF 		addi	sp,sp,-16
 366              		.cfi_def_cfa_offset 16
 367 01a8 23341100 		sd	ra,8(sp)
 368 01ac 23308100 		sd	s0,0(sp)
 369              		.cfi_offset 1, -8
 370              		.cfi_offset 8, -16
 371 01b0 13040101 		addi	s0,sp,16
GAS LISTING /tmp/ccbuEeO6.s 			page 9


 372              		.cfi_def_cfa 8, 0
  46:src/syscall_cpp.cpp ****     return __mem_alloc(n);
 373              		.loc 2 46 5
 374              		.loc 2 46 23 is_stmt 0
 375 01b4 97000000 		call	__mem_alloc@plt
 375      E7800000 
 376              	.LVL26:
  47:src/syscall_cpp.cpp **** }
 377              		.loc 2 47 1
 378 01bc 83308100 		ld	ra,8(sp)
 379              		.cfi_restore 1
 380 01c0 03340100 		ld	s0,0(sp)
 381              		.cfi_restore 8
 382              		.cfi_def_cfa 2, 16
 383 01c4 13010101 		addi	sp,sp,16
 384              		.cfi_def_cfa_offset 0
 385 01c8 67800000 		jr	ra
 386              		.cfi_endproc
 387              	.LFE44:
 389              		.align	2
 390              		.globl	_ZdlPv
 392              	_ZdlPv:
 393              	.LFB45:
  48:src/syscall_cpp.cpp **** 
  49:src/syscall_cpp.cpp **** void operator delete(void *p) {
 394              		.loc 2 49 31 is_stmt 1
 395              		.cfi_startproc
 396              	.LVL27:
 397 01cc 130101FF 		addi	sp,sp,-16
 398              		.cfi_def_cfa_offset 16
 399 01d0 23341100 		sd	ra,8(sp)
 400 01d4 23308100 		sd	s0,0(sp)
 401              		.cfi_offset 1, -8
 402              		.cfi_offset 8, -16
 403 01d8 13040101 		addi	s0,sp,16
 404              		.cfi_def_cfa 8, 0
  50:src/syscall_cpp.cpp ****     __mem_free(p);
 405              		.loc 2 50 5
 406              		.loc 2 50 15 is_stmt 0
 407 01dc 97000000 		call	__mem_free@plt
 407      E7800000 
 408              	.LVL28:
  51:src/syscall_cpp.cpp **** }
 409              		.loc 2 51 1
 410 01e4 83308100 		ld	ra,8(sp)
 411              		.cfi_restore 1
 412 01e8 03340100 		ld	s0,0(sp)
 413              		.cfi_restore 8
 414              		.cfi_def_cfa 2, 16
 415 01ec 13010101 		addi	sp,sp,16
 416              		.cfi_def_cfa_offset 0
 417 01f0 67800000 		jr	ra
 418              		.cfi_endproc
 419              	.LFE45:
 421              		.align	2
 422              		.globl	_ZN6ThreadD2Ev
 424              	_ZN6ThreadD2Ev:
GAS LISTING /tmp/ccbuEeO6.s 			page 10


 425              	.LFB29:
   7:src/syscall_cpp.cpp ****     ::delete myHandle;
 426              		.loc 2 7 1 is_stmt 1
 427              		.cfi_startproc
 428              		.cfi_personality 0x9b,DW.ref.__gxx_personality_v0
 429              		.cfi_lsda 0x1b,.LLSDA29
 430              	.LVL29:
 431 01f4 130101FE 		addi	sp,sp,-32
 432              		.cfi_def_cfa_offset 32
 433 01f8 233C1100 		sd	ra,24(sp)
 434 01fc 23388100 		sd	s0,16(sp)
 435 0200 23349100 		sd	s1,8(sp)
 436              		.cfi_offset 1, -8
 437              		.cfi_offset 8, -16
 438              		.cfi_offset 9, -24
 439 0204 13040102 		addi	s0,sp,32
 440              		.cfi_def_cfa 8, 0
 441              	.LBB9:
   7:src/syscall_cpp.cpp ****     ::delete myHandle;
 442              		.loc 2 7 17 is_stmt 0
 443 0208 97070000 		lla	a5,_ZTV6Thread+16
 443      93870700 
 444 0210 2330F500 		sd	a5,0(a0)
   8:src/syscall_cpp.cpp **** }
 445              		.loc 2 8 5 is_stmt 1
   8:src/syscall_cpp.cpp **** }
 446              		.loc 2 8 14 is_stmt 0
 447 0214 83348500 		ld	s1,8(a0)
   8:src/syscall_cpp.cpp **** }
 448              		.loc 2 8 22
 449 0218 638E0400 		beqz	s1,.L32
 450              	.LVL30:
 451              	.LBB10:
 452              	.LBB11:
 453              		.file 3 "src/../h/../h/pcb.hpp"
   1:src/../h/../h/pcb.hpp **** #ifndef OS1_PROJEKAT_PCB_HPP
   2:src/../h/../h/pcb.hpp **** #define OS1_PROJEKAT_PCB_HPP
   3:src/../h/../h/pcb.hpp **** 
   4:src/../h/../h/pcb.hpp **** #include "../lib/hw.h"
   5:src/../h/../h/pcb.hpp **** #include "scheduler.hpp"
   6:src/../h/../h/pcb.hpp **** #include "../lib/mem.h"
   7:src/../h/../h/pcb.hpp **** 
   8:src/../h/../h/pcb.hpp **** class PCB {
   9:src/../h/../h/pcb.hpp **** public:
  10:src/../h/../h/pcb.hpp ****     ~PCB() { __mem_free(stack); }
 454              		.loc 3 10 14 is_stmt 1 discriminator 1
 455              		.loc 3 10 24 is_stmt 0 discriminator 1
 456 021c 03B58400 		ld	a0,8(s1)
 457              	.LVL31:
 458 0220 97000000 		call	__mem_free@plt
 458      E7800000 
 459              	.LVL32:
 460              	.LBE11:
 461              	.LBE10:
   8:src/syscall_cpp.cpp **** }
 462              		.loc 2 8 14 discriminator 1
 463 0228 13850400 		mv	a0,s1
GAS LISTING /tmp/ccbuEeO6.s 			page 11


 464 022c 97000000 		call	_ZdlPv
 464      E7800000 
 465              	.LVL33:
 466              	.L32:
 467              	.LBE9:
   9:src/syscall_cpp.cpp **** 
 468              		.loc 2 9 1
 469 0234 83308101 		ld	ra,24(sp)
 470              		.cfi_restore 1
 471 0238 03340101 		ld	s0,16(sp)
 472              		.cfi_restore 8
 473              		.cfi_def_cfa 2, 32
 474 023c 83348100 		ld	s1,8(sp)
 475              		.cfi_restore 9
 476 0240 13010102 		addi	sp,sp,32
 477              		.cfi_def_cfa_offset 0
 478 0244 67800000 		jr	ra
 479              		.cfi_endproc
 480              	.LFE29:
 481              		.section	.gcc_except_table
 482              	.LLSDA29:
 483 0004 FF       		.byte	0xff
 484 0005 FF       		.byte	0xff
 485 0006 03       		.byte	0x3
 486 0007 00       		.byte	0
 487              		.text
 489              		.globl	_ZN6ThreadD1Ev
 490              		.set	_ZN6ThreadD1Ev,_ZN6ThreadD2Ev
 491              		.align	2
 492              		.globl	_ZN6ThreadD0Ev
 494              	_ZN6ThreadD0Ev:
 495              	.LFB31:
   7:src/syscall_cpp.cpp ****     ::delete myHandle;
 496              		.loc 2 7 1 is_stmt 1
 497              		.cfi_startproc
 498              	.LVL34:
 499 0248 130101FE 		addi	sp,sp,-32
 500              		.cfi_def_cfa_offset 32
 501 024c 233C1100 		sd	ra,24(sp)
 502 0250 23388100 		sd	s0,16(sp)
 503 0254 23349100 		sd	s1,8(sp)
 504              		.cfi_offset 1, -8
 505              		.cfi_offset 8, -16
 506              		.cfi_offset 9, -24
 507 0258 13040102 		addi	s0,sp,32
 508              		.cfi_def_cfa 8, 0
 509 025c 93040500 		mv	s1,a0
   9:src/syscall_cpp.cpp **** 
 510              		.loc 2 9 1 is_stmt 0
 511 0260 97000000 		call	_ZN6ThreadD1Ev
 511      E7800000 
 512              	.LVL35:
 513 0268 13850400 		mv	a0,s1
 514 026c 97000000 		call	_ZdlPv
 514      E7800000 
 515              	.LVL36:
 516 0274 83308101 		ld	ra,24(sp)
GAS LISTING /tmp/ccbuEeO6.s 			page 12


 517              		.cfi_restore 1
 518 0278 03340101 		ld	s0,16(sp)
 519              		.cfi_restore 8
 520              		.cfi_def_cfa 2, 32
 521 027c 83348100 		ld	s1,8(sp)
 522              		.cfi_restore 9
 523              	.LVL37:
 524 0280 13010102 		addi	sp,sp,32
 525              		.cfi_def_cfa_offset 0
 526 0284 67800000 		jr	ra
 527              		.cfi_endproc
 528              	.LFE31:
 530              		.align	2
 531              		.globl	_ZN9SemaphoreD0Ev
 533              	_ZN9SemaphoreD0Ev:
 534              	.LFB41:
  33:src/syscall_cpp.cpp ****     sem_close(myHandle);
 535              		.loc 2 33 1 is_stmt 1
 536              		.cfi_startproc
 537              	.LVL38:
 538 0288 130101FE 		addi	sp,sp,-32
 539              		.cfi_def_cfa_offset 32
 540 028c 233C1100 		sd	ra,24(sp)
 541 0290 23388100 		sd	s0,16(sp)
 542 0294 23349100 		sd	s1,8(sp)
 543              		.cfi_offset 1, -8
 544              		.cfi_offset 8, -16
 545              		.cfi_offset 9, -24
 546 0298 13040102 		addi	s0,sp,32
 547              		.cfi_def_cfa 8, 0
 548 029c 93040500 		mv	s1,a0
  35:src/syscall_cpp.cpp **** 
 549              		.loc 2 35 1 is_stmt 0
 550 02a0 97000000 		call	_ZN9SemaphoreD1Ev
 550      E7800000 
 551              	.LVL39:
 552 02a8 13850400 		mv	a0,s1
 553 02ac 97000000 		call	_ZdlPv
 553      E7800000 
 554              	.LVL40:
 555 02b4 83308101 		ld	ra,24(sp)
 556              		.cfi_restore 1
 557 02b8 03340101 		ld	s0,16(sp)
 558              		.cfi_restore 8
 559              		.cfi_def_cfa 2, 32
 560 02bc 83348100 		ld	s1,8(sp)
 561              		.cfi_restore 9
 562              	.LVL41:
 563 02c0 13010102 		addi	sp,sp,32
 564              		.cfi_def_cfa_offset 0
 565 02c4 67800000 		jr	ra
 566              		.cfi_endproc
 567              	.LFE41:
 569              		.align	2
 570              		.globl	_ZN7Console4getcEv
 572              	_ZN7Console4getcEv:
 573              	.LFB46:
GAS LISTING /tmp/ccbuEeO6.s 			page 13


  52:src/syscall_cpp.cpp **** 
  53:src/syscall_cpp.cpp **** char Console::getc() {
 574              		.loc 2 53 22 is_stmt 1
 575              		.cfi_startproc
 576 02c8 130101FF 		addi	sp,sp,-16
 577              		.cfi_def_cfa_offset 16
 578 02cc 23341100 		sd	ra,8(sp)
 579 02d0 23308100 		sd	s0,0(sp)
 580              		.cfi_offset 1, -8
 581              		.cfi_offset 8, -16
 582 02d4 13040101 		addi	s0,sp,16
 583              		.cfi_def_cfa 8, 0
  54:src/syscall_cpp.cpp ****     return ::getc();
 584              		.loc 2 54 5
 585              		.loc 2 54 18 is_stmt 0
 586 02d8 97000000 		call	_Z4getcv@plt
 586      E7800000 
 587              	.LVL42:
  55:src/syscall_cpp.cpp **** }
 588              		.loc 2 55 1
 589 02e0 83308100 		ld	ra,8(sp)
 590              		.cfi_restore 1
 591 02e4 03340100 		ld	s0,0(sp)
 592              		.cfi_restore 8
 593              		.cfi_def_cfa 2, 16
 594 02e8 13010101 		addi	sp,sp,16
 595              		.cfi_def_cfa_offset 0
 596 02ec 67800000 		jr	ra
 597              		.cfi_endproc
 598              	.LFE46:
 600              		.align	2
 601              		.globl	_ZN7Console4putcEc
 603              	_ZN7Console4putcEc:
 604              	.LFB47:
  56:src/syscall_cpp.cpp **** 
  57:src/syscall_cpp.cpp **** void Console::putc(char c) {
 605              		.loc 2 57 28 is_stmt 1
 606              		.cfi_startproc
 607              	.LVL43:
 608 02f0 130101FF 		addi	sp,sp,-16
 609              		.cfi_def_cfa_offset 16
 610 02f4 23341100 		sd	ra,8(sp)
 611 02f8 23308100 		sd	s0,0(sp)
 612              		.cfi_offset 1, -8
 613              		.cfi_offset 8, -16
 614 02fc 13040101 		addi	s0,sp,16
 615              		.cfi_def_cfa 8, 0
  58:src/syscall_cpp.cpp ****     ::putc(c);
 616              		.loc 2 58 5
 617              		.loc 2 58 11 is_stmt 0
 618 0300 97000000 		call	_Z4putcc@plt
 618      E7800000 
 619              	.LVL44:
  59:src/syscall_cpp.cpp **** }
 620              		.loc 2 59 1
 621 0308 83308100 		ld	ra,8(sp)
 622              		.cfi_restore 1
GAS LISTING /tmp/ccbuEeO6.s 			page 14


 623 030c 03340100 		ld	s0,0(sp)
 624              		.cfi_restore 8
 625              		.cfi_def_cfa 2, 16
 626 0310 13010101 		addi	sp,sp,16
 627              		.cfi_def_cfa_offset 0
 628 0314 67800000 		jr	ra
 629              		.cfi_endproc
 630              	.LFE47:
 632              		.weak	_ZTV6Thread
 633              		.section	.data.rel.ro.local._ZTV6Thread,"awG",@progbits,_ZTV6Thread,comdat
 634              		.align	3
 637              	_ZTV6Thread:
 638 0000 00000000 		.dword	0
 638      00000000 
 639 0008 00000000 		.dword	0
 639      00000000 
 640 0010 00000000 		.dword	_ZN6ThreadD1Ev
 640      00000000 
 641 0018 00000000 		.dword	_ZN6ThreadD0Ev
 641      00000000 
 642 0020 00000000 		.dword	_ZN6Thread3runEv
 642      00000000 
 643              		.weak	_ZTV9Semaphore
 644              		.section	.data.rel.ro.local._ZTV9Semaphore,"awG",@progbits,_ZTV9Semaphore,comdat
 645              		.align	3
 648              	_ZTV9Semaphore:
 649 0000 00000000 		.dword	0
 649      00000000 
 650 0008 00000000 		.dword	0
 650      00000000 
 651 0010 00000000 		.dword	_ZN9SemaphoreD1Ev
 651      00000000 
 652 0018 00000000 		.dword	_ZN9SemaphoreD0Ev
 652      00000000 
 653              		.text
 654              	.Letext0:
 655              		.file 4 "src/../h/../lib/hw.h"
 656              		.file 5 "src/../h/syscall_c.h"
 657              		.file 6 "src/../h/../lib/mem.h"
 3688              		.align	3
 3691              	DW.ref.__gxx_personality_v0:
 3692 0000 00000000 		.dword	__gxx_personality_v0
 3692      00000000 
 3693              		.ident	"GCC: (Ubuntu 9.4.0-1ubuntu1~20.04) 9.4.0"
 3694              		.section	.note.GNU-stack,"",@progbits
GAS LISTING /tmp/ccbuEeO6.s 			page 15


DEFINED SYMBOLS
                            *ABS*:0000000000000000 syscall_cpp.cpp
     /tmp/ccbuEeO6.s:10     .text._ZN6Thread3runEv:0000000000000000 _ZN6Thread3runEv
     /tmp/ccbuEeO6.s:14     .text._ZN6Thread3runEv:0000000000000000 .L0 
     /tmp/ccbuEeO6.s:16     .text._ZN6Thread3runEv:0000000000000000 .L0 
     /tmp/ccbuEeO6.s:17     .text._ZN6Thread3runEv:0000000000000004 .L0 
     /tmp/ccbuEeO6.s:19     .text._ZN6Thread3runEv:0000000000000008 .L0 
     /tmp/ccbuEeO6.s:21     .text._ZN6Thread3runEv:000000000000000c .L0 
     /tmp/ccbuEeO6.s:23     .text._ZN6Thread3runEv:000000000000000c .L0 
     /tmp/ccbuEeO6.s:24     .text._ZN6Thread3runEv:0000000000000010 .L0 
     /tmp/ccbuEeO6.s:25     .text._ZN6Thread3runEv:0000000000000010 .L0 
     /tmp/ccbuEeO6.s:27     .text._ZN6Thread3runEv:0000000000000014 .L0 
     /tmp/ccbuEeO6.s:29     .text._ZN6Thread3runEv:0000000000000018 .L0 
     /tmp/ccbuEeO6.s:36     .text:0000000000000000 _ZN6Thread7starterEPv
     /tmp/ccbuEeO6.s:40     .text:0000000000000000 .L0 
     /tmp/ccbuEeO6.s:42     .text:0000000000000000 .L0 
     /tmp/ccbuEeO6.s:43     .text:0000000000000000 .L0 
     /tmp/ccbuEeO6.s:44     .text:0000000000000000 .L0 
     /tmp/ccbuEeO6.s:46     .text:0000000000000004 .L0 
     /tmp/ccbuEeO6.s:47     .text:0000000000000008 .L0 
     /tmp/ccbuEeO6.s:50     .text:0000000000000010 .L0 
     /tmp/ccbuEeO6.s:51     .text:0000000000000010 .L0 
     /tmp/ccbuEeO6.s:53     .text:0000000000000014 .L0 
     /tmp/ccbuEeO6.s:55     .text:0000000000000014 .L0 
     /tmp/ccbuEeO6.s:56     .text:0000000000000014 .L0 
     /tmp/ccbuEeO6.s:59     .text:000000000000001c .L0 
     /tmp/ccbuEeO6.s:62     .text:0000000000000020 .L0 
     /tmp/ccbuEeO6.s:63     .text:0000000000000024 .L0 
     /tmp/ccbuEeO6.s:65     .text:0000000000000028 .L0 
     /tmp/ccbuEeO6.s:66     .text:0000000000000028 .L0 
     /tmp/ccbuEeO6.s:68     .text:000000000000002c .L0 
     /tmp/ccbuEeO6.s:73     .text:0000000000000034 .L0 
     /tmp/ccbuEeO6.s:79     .text:0000000000000034 _ZN9SemaphoreD2Ev
     /tmp/ccbuEeO6.s:82     .text:0000000000000034 .L0 
     /tmp/ccbuEeO6.s:3691   .data.rel.local.DW.ref.__gxx_personality_v0:0000000000000000 DW.ref.__gxx_personality_v0
     /tmp/ccbuEeO6.s:86     .text:0000000000000034 .L0 
     /tmp/ccbuEeO6.s:87     .text:0000000000000038 .L0 
     /tmp/ccbuEeO6.s:90     .text:0000000000000040 .L0 
     /tmp/ccbuEeO6.s:91     .text:0000000000000040 .L0 
     /tmp/ccbuEeO6.s:93     .text:0000000000000044 .L0 
     /tmp/ccbuEeO6.s:648    .data.rel.ro.local._ZTV9Semaphore:0000000000000000 _ZTV9Semaphore
     /tmp/ccbuEeO6.s:96     .text:0000000000000044 .L0 
     /tmp/ccbuEeO6.s:99     .text:0000000000000050 .L0 
     /tmp/ccbuEeO6.s:100    .text:0000000000000050 .L0 
     /tmp/ccbuEeO6.s:106    .text:000000000000005c .L0 
     /tmp/ccbuEeO6.s:107    .text:0000000000000060 .L0 
     /tmp/ccbuEeO6.s:109    .text:0000000000000064 .L0 
     /tmp/ccbuEeO6.s:110    .text:0000000000000064 .L0 
     /tmp/ccbuEeO6.s:112    .text:0000000000000068 .L0 
     /tmp/ccbuEeO6.s:114    .text:000000000000006c .L0 
     /tmp/ccbuEeO6.s:79     .text:0000000000000034 _ZN9SemaphoreD1Ev
     /tmp/ccbuEeO6.s:130    .text:000000000000006c _ZN6ThreadC2EPFvPvES0_
     /tmp/ccbuEeO6.s:133    .text:000000000000006c .L0 
     /tmp/ccbuEeO6.s:135    .text:000000000000006c .L0 
     /tmp/ccbuEeO6.s:136    .text:0000000000000070 .L0 
     /tmp/ccbuEeO6.s:139    .text:0000000000000078 .L0 
     /tmp/ccbuEeO6.s:140    .text:0000000000000078 .L0 
GAS LISTING /tmp/ccbuEeO6.s 			page 16


     /tmp/ccbuEeO6.s:142    .text:000000000000007c .L0 
     /tmp/ccbuEeO6.s:637    .data.rel.ro.local._ZTV6Thread:0000000000000000 _ZTV6Thread
     /tmp/ccbuEeO6.s:145    .text:000000000000007c .L0 
     /tmp/ccbuEeO6.s:148    .text:0000000000000088 .L0 
     /tmp/ccbuEeO6.s:149    .text:0000000000000088 .L0 
     /tmp/ccbuEeO6.s:155    .text:0000000000000094 .L0 
     /tmp/ccbuEeO6.s:156    .text:0000000000000098 .L0 
     /tmp/ccbuEeO6.s:158    .text:000000000000009c .L0 
     /tmp/ccbuEeO6.s:159    .text:000000000000009c .L0 
     /tmp/ccbuEeO6.s:161    .text:00000000000000a0 .L0 
     /tmp/ccbuEeO6.s:163    .text:00000000000000a4 .L0 
     /tmp/ccbuEeO6.s:130    .text:000000000000006c _ZN6ThreadC1EPFvPvES0_
     /tmp/ccbuEeO6.s:171    .text:00000000000000a4 _ZN6Thread5startEv
     /tmp/ccbuEeO6.s:174    .text:00000000000000a4 .L0 
     /tmp/ccbuEeO6.s:176    .text:00000000000000a4 .L0 
     /tmp/ccbuEeO6.s:177    .text:00000000000000a4 .L0 
     /tmp/ccbuEeO6.s:178    .text:00000000000000a4 .L0 
     /tmp/ccbuEeO6.s:180    .text:00000000000000a8 .L0 
     /tmp/ccbuEeO6.s:182    .text:00000000000000ac .L0 
     /tmp/ccbuEeO6.s:183    .text:00000000000000b0 .L0 
     /tmp/ccbuEeO6.s:186    .text:00000000000000b8 .L0 
     /tmp/ccbuEeO6.s:187    .text:00000000000000b8 .L0 
     /tmp/ccbuEeO6.s:189    .text:00000000000000bc .L0 
     /tmp/ccbuEeO6.s:191    .text:00000000000000bc .L0 
     /tmp/ccbuEeO6.s:192    .text:00000000000000bc .L0 
     /tmp/ccbuEeO6.s:199    .text:00000000000000d4 .L0 
     /tmp/ccbuEeO6.s:200    .text:00000000000000d8 .L0 
     /tmp/ccbuEeO6.s:202    .text:00000000000000dc .L0 
     /tmp/ccbuEeO6.s:203    .text:00000000000000dc .L0 
     /tmp/ccbuEeO6.s:205    .text:00000000000000e0 .L0 
     /tmp/ccbuEeO6.s:210    .text:00000000000000e4 .L0 
     /tmp/ccbuEeO6.s:213    .text:00000000000000e8 .L0 
     /tmp/ccbuEeO6.s:214    .text:00000000000000ec .L0 
     /tmp/ccbuEeO6.s:220    .text:00000000000000ec _ZN6Thread8dispatchEv
     /tmp/ccbuEeO6.s:223    .text:00000000000000ec .L0 
     /tmp/ccbuEeO6.s:224    .text:00000000000000ec .L0 
     /tmp/ccbuEeO6.s:225    .text:00000000000000f0 .L0 
     /tmp/ccbuEeO6.s:228    .text:00000000000000f8 .L0 
     /tmp/ccbuEeO6.s:229    .text:00000000000000f8 .L0 
     /tmp/ccbuEeO6.s:231    .text:00000000000000fc .L0 
     /tmp/ccbuEeO6.s:233    .text:00000000000000fc .L0 
     /tmp/ccbuEeO6.s:234    .text:00000000000000fc .L0 
     /tmp/ccbuEeO6.s:237    .text:0000000000000104 .L0 
     /tmp/ccbuEeO6.s:238    .text:0000000000000108 .L0 
     /tmp/ccbuEeO6.s:240    .text:000000000000010c .L0 
     /tmp/ccbuEeO6.s:241    .text:000000000000010c .L0 
     /tmp/ccbuEeO6.s:243    .text:0000000000000110 .L0 
     /tmp/ccbuEeO6.s:245    .text:0000000000000114 .L0 
     /tmp/ccbuEeO6.s:251    .text:0000000000000114 _ZN9SemaphoreC2Ej
     /tmp/ccbuEeO6.s:254    .text:0000000000000114 .L0 
     /tmp/ccbuEeO6.s:256    .text:0000000000000114 .L0 
     /tmp/ccbuEeO6.s:257    .text:0000000000000118 .L0 
     /tmp/ccbuEeO6.s:260    .text:0000000000000120 .L0 
     /tmp/ccbuEeO6.s:261    .text:0000000000000120 .L0 
     /tmp/ccbuEeO6.s:263    .text:0000000000000124 .L0 
     /tmp/ccbuEeO6.s:266    .text:0000000000000124 .L0 
     /tmp/ccbuEeO6.s:269    .text:0000000000000130 .L0 
GAS LISTING /tmp/ccbuEeO6.s 			page 17


     /tmp/ccbuEeO6.s:270    .text:0000000000000130 .L0 
     /tmp/ccbuEeO6.s:276    .text:000000000000013c .L0 
     /tmp/ccbuEeO6.s:277    .text:0000000000000140 .L0 
     /tmp/ccbuEeO6.s:279    .text:0000000000000144 .L0 
     /tmp/ccbuEeO6.s:280    .text:0000000000000144 .L0 
     /tmp/ccbuEeO6.s:282    .text:0000000000000148 .L0 
     /tmp/ccbuEeO6.s:284    .text:000000000000014c .L0 
     /tmp/ccbuEeO6.s:251    .text:0000000000000114 _ZN9SemaphoreC1Ej
     /tmp/ccbuEeO6.s:292    .text:000000000000014c _ZN9Semaphore4waitEv
     /tmp/ccbuEeO6.s:295    .text:000000000000014c .L0 
     /tmp/ccbuEeO6.s:297    .text:000000000000014c .L0 
     /tmp/ccbuEeO6.s:298    .text:0000000000000150 .L0 
     /tmp/ccbuEeO6.s:301    .text:0000000000000158 .L0 
     /tmp/ccbuEeO6.s:302    .text:0000000000000158 .L0 
     /tmp/ccbuEeO6.s:304    .text:000000000000015c .L0 
     /tmp/ccbuEeO6.s:306    .text:000000000000015c .L0 
     /tmp/ccbuEeO6.s:307    .text:000000000000015c .L0 
     /tmp/ccbuEeO6.s:312    .text:0000000000000168 .L0 
     /tmp/ccbuEeO6.s:313    .text:000000000000016c .L0 
     /tmp/ccbuEeO6.s:315    .text:0000000000000170 .L0 
     /tmp/ccbuEeO6.s:316    .text:0000000000000170 .L0 
     /tmp/ccbuEeO6.s:318    .text:0000000000000174 .L0 
     /tmp/ccbuEeO6.s:320    .text:0000000000000178 .L0 
     /tmp/ccbuEeO6.s:326    .text:0000000000000178 _ZN9Semaphore6signalEv
     /tmp/ccbuEeO6.s:329    .text:0000000000000178 .L0 
     /tmp/ccbuEeO6.s:331    .text:0000000000000178 .L0 
     /tmp/ccbuEeO6.s:332    .text:000000000000017c .L0 
     /tmp/ccbuEeO6.s:335    .text:0000000000000184 .L0 
     /tmp/ccbuEeO6.s:336    .text:0000000000000184 .L0 
     /tmp/ccbuEeO6.s:338    .text:0000000000000188 .L0 
     /tmp/ccbuEeO6.s:340    .text:0000000000000188 .L0 
     /tmp/ccbuEeO6.s:341    .text:0000000000000188 .L0 
     /tmp/ccbuEeO6.s:346    .text:0000000000000194 .L0 
     /tmp/ccbuEeO6.s:347    .text:0000000000000198 .L0 
     /tmp/ccbuEeO6.s:349    .text:000000000000019c .L0 
     /tmp/ccbuEeO6.s:350    .text:000000000000019c .L0 
     /tmp/ccbuEeO6.s:352    .text:00000000000001a0 .L0 
     /tmp/ccbuEeO6.s:354    .text:00000000000001a4 .L0 
     /tmp/ccbuEeO6.s:360    .text:00000000000001a4 _Znwm
     /tmp/ccbuEeO6.s:363    .text:00000000000001a4 .L0 
     /tmp/ccbuEeO6.s:365    .text:00000000000001a4 .L0 
     /tmp/ccbuEeO6.s:366    .text:00000000000001a8 .L0 
     /tmp/ccbuEeO6.s:369    .text:00000000000001b0 .L0 
     /tmp/ccbuEeO6.s:370    .text:00000000000001b0 .L0 
     /tmp/ccbuEeO6.s:372    .text:00000000000001b4 .L0 
     /tmp/ccbuEeO6.s:374    .text:00000000000001b4 .L0 
     /tmp/ccbuEeO6.s:375    .text:00000000000001b4 .L0 
     /tmp/ccbuEeO6.s:378    .text:00000000000001bc .L0 
     /tmp/ccbuEeO6.s:379    .text:00000000000001c0 .L0 
     /tmp/ccbuEeO6.s:381    .text:00000000000001c4 .L0 
     /tmp/ccbuEeO6.s:382    .text:00000000000001c4 .L0 
     /tmp/ccbuEeO6.s:384    .text:00000000000001c8 .L0 
     /tmp/ccbuEeO6.s:386    .text:00000000000001cc .L0 
     /tmp/ccbuEeO6.s:392    .text:00000000000001cc _ZdlPv
     /tmp/ccbuEeO6.s:395    .text:00000000000001cc .L0 
     /tmp/ccbuEeO6.s:397    .text:00000000000001cc .L0 
     /tmp/ccbuEeO6.s:398    .text:00000000000001d0 .L0 
GAS LISTING /tmp/ccbuEeO6.s 			page 18


     /tmp/ccbuEeO6.s:401    .text:00000000000001d8 .L0 
     /tmp/ccbuEeO6.s:402    .text:00000000000001d8 .L0 
     /tmp/ccbuEeO6.s:404    .text:00000000000001dc .L0 
     /tmp/ccbuEeO6.s:406    .text:00000000000001dc .L0 
     /tmp/ccbuEeO6.s:407    .text:00000000000001dc .L0 
     /tmp/ccbuEeO6.s:410    .text:00000000000001e4 .L0 
     /tmp/ccbuEeO6.s:411    .text:00000000000001e8 .L0 
     /tmp/ccbuEeO6.s:413    .text:00000000000001ec .L0 
     /tmp/ccbuEeO6.s:414    .text:00000000000001ec .L0 
     /tmp/ccbuEeO6.s:416    .text:00000000000001f0 .L0 
     /tmp/ccbuEeO6.s:418    .text:00000000000001f4 .L0 
     /tmp/ccbuEeO6.s:424    .text:00000000000001f4 _ZN6ThreadD2Ev
     /tmp/ccbuEeO6.s:427    .text:00000000000001f4 .L0 
     /tmp/ccbuEeO6.s:431    .text:00000000000001f4 .L0 
     /tmp/ccbuEeO6.s:432    .text:00000000000001f8 .L0 
     /tmp/ccbuEeO6.s:436    .text:0000000000000204 .L0 
     /tmp/ccbuEeO6.s:437    .text:0000000000000204 .L0 
     /tmp/ccbuEeO6.s:438    .text:0000000000000204 .L0 
     /tmp/ccbuEeO6.s:440    .text:0000000000000208 .L0 
     /tmp/ccbuEeO6.s:443    .text:0000000000000208 .L0 
     /tmp/ccbuEeO6.s:446    .text:0000000000000214 .L0 
     /tmp/ccbuEeO6.s:447    .text:0000000000000214 .L0 
     /tmp/ccbuEeO6.s:449    .text:0000000000000218 .L0 
     /tmp/ccbuEeO6.s:455    .text:000000000000021c .L0 
     /tmp/ccbuEeO6.s:456    .text:000000000000021c .L0 
     /tmp/ccbuEeO6.s:463    .text:0000000000000228 .L0 
     /tmp/ccbuEeO6.s:469    .text:0000000000000234 .L0 
     /tmp/ccbuEeO6.s:470    .text:0000000000000238 .L0 
     /tmp/ccbuEeO6.s:472    .text:000000000000023c .L0 
     /tmp/ccbuEeO6.s:473    .text:000000000000023c .L0 
     /tmp/ccbuEeO6.s:475    .text:0000000000000240 .L0 
     /tmp/ccbuEeO6.s:477    .text:0000000000000244 .L0 
     /tmp/ccbuEeO6.s:479    .text:0000000000000248 .L0 
     /tmp/ccbuEeO6.s:424    .text:00000000000001f4 _ZN6ThreadD1Ev
     /tmp/ccbuEeO6.s:494    .text:0000000000000248 _ZN6ThreadD0Ev
     /tmp/ccbuEeO6.s:497    .text:0000000000000248 .L0 
     /tmp/ccbuEeO6.s:499    .text:0000000000000248 .L0 
     /tmp/ccbuEeO6.s:500    .text:000000000000024c .L0 
     /tmp/ccbuEeO6.s:504    .text:0000000000000258 .L0 
     /tmp/ccbuEeO6.s:505    .text:0000000000000258 .L0 
     /tmp/ccbuEeO6.s:506    .text:0000000000000258 .L0 
     /tmp/ccbuEeO6.s:508    .text:000000000000025c .L0 
     /tmp/ccbuEeO6.s:511    .text:0000000000000260 .L0 
     /tmp/ccbuEeO6.s:517    .text:0000000000000278 .L0 
     /tmp/ccbuEeO6.s:519    .text:000000000000027c .L0 
     /tmp/ccbuEeO6.s:520    .text:000000000000027c .L0 
     /tmp/ccbuEeO6.s:522    .text:0000000000000280 .L0 
     /tmp/ccbuEeO6.s:525    .text:0000000000000284 .L0 
     /tmp/ccbuEeO6.s:527    .text:0000000000000288 .L0 
     /tmp/ccbuEeO6.s:533    .text:0000000000000288 _ZN9SemaphoreD0Ev
     /tmp/ccbuEeO6.s:536    .text:0000000000000288 .L0 
     /tmp/ccbuEeO6.s:538    .text:0000000000000288 .L0 
     /tmp/ccbuEeO6.s:539    .text:000000000000028c .L0 
     /tmp/ccbuEeO6.s:543    .text:0000000000000298 .L0 
     /tmp/ccbuEeO6.s:544    .text:0000000000000298 .L0 
     /tmp/ccbuEeO6.s:545    .text:0000000000000298 .L0 
     /tmp/ccbuEeO6.s:547    .text:000000000000029c .L0 
GAS LISTING /tmp/ccbuEeO6.s 			page 19


     /tmp/ccbuEeO6.s:550    .text:00000000000002a0 .L0 
     /tmp/ccbuEeO6.s:556    .text:00000000000002b8 .L0 
     /tmp/ccbuEeO6.s:558    .text:00000000000002bc .L0 
     /tmp/ccbuEeO6.s:559    .text:00000000000002bc .L0 
     /tmp/ccbuEeO6.s:561    .text:00000000000002c0 .L0 
     /tmp/ccbuEeO6.s:564    .text:00000000000002c4 .L0 
     /tmp/ccbuEeO6.s:566    .text:00000000000002c8 .L0 
     /tmp/ccbuEeO6.s:572    .text:00000000000002c8 _ZN7Console4getcEv
     /tmp/ccbuEeO6.s:575    .text:00000000000002c8 .L0 
     /tmp/ccbuEeO6.s:576    .text:00000000000002c8 .L0 
     /tmp/ccbuEeO6.s:577    .text:00000000000002cc .L0 
     /tmp/ccbuEeO6.s:580    .text:00000000000002d4 .L0 
     /tmp/ccbuEeO6.s:581    .text:00000000000002d4 .L0 
     /tmp/ccbuEeO6.s:583    .text:00000000000002d8 .L0 
     /tmp/ccbuEeO6.s:585    .text:00000000000002d8 .L0 
     /tmp/ccbuEeO6.s:586    .text:00000000000002d8 .L0 
     /tmp/ccbuEeO6.s:589    .text:00000000000002e0 .L0 
     /tmp/ccbuEeO6.s:590    .text:00000000000002e4 .L0 
     /tmp/ccbuEeO6.s:592    .text:00000000000002e8 .L0 
     /tmp/ccbuEeO6.s:593    .text:00000000000002e8 .L0 
     /tmp/ccbuEeO6.s:595    .text:00000000000002ec .L0 
     /tmp/ccbuEeO6.s:597    .text:00000000000002f0 .L0 
     /tmp/ccbuEeO6.s:603    .text:00000000000002f0 _ZN7Console4putcEc
     /tmp/ccbuEeO6.s:606    .text:00000000000002f0 .L0 
     /tmp/ccbuEeO6.s:608    .text:00000000000002f0 .L0 
     /tmp/ccbuEeO6.s:609    .text:00000000000002f4 .L0 
     /tmp/ccbuEeO6.s:612    .text:00000000000002fc .L0 
     /tmp/ccbuEeO6.s:613    .text:00000000000002fc .L0 
     /tmp/ccbuEeO6.s:615    .text:0000000000000300 .L0 
     /tmp/ccbuEeO6.s:617    .text:0000000000000300 .L0 
     /tmp/ccbuEeO6.s:618    .text:0000000000000300 .L0 
     /tmp/ccbuEeO6.s:621    .text:0000000000000308 .L0 
     /tmp/ccbuEeO6.s:622    .text:000000000000030c .L0 
     /tmp/ccbuEeO6.s:624    .text:0000000000000310 .L0 
     /tmp/ccbuEeO6.s:625    .text:0000000000000310 .L0 
     /tmp/ccbuEeO6.s:627    .text:0000000000000314 .L0 
     /tmp/ccbuEeO6.s:629    .text:0000000000000318 .L0 
     /tmp/ccbuEeO6.s:32     .text._ZN6Thread3runEv:0000000000000018 .L0 
     /tmp/ccbuEeO6.s:658    .text:0000000000000318 .L0 
     /tmp/ccbuEeO6.s:96     .text:0000000000000044 .L0 
     /tmp/ccbuEeO6.s:145    .text:000000000000007c .L0 
     /tmp/ccbuEeO6.s:193    .text:00000000000000c0 .L0 
     /tmp/ccbuEeO6.s:266    .text:0000000000000124 .L0 
     /tmp/ccbuEeO6.s:443    .text:0000000000000208 .L0 
     /tmp/ccbuEeO6.s:71     .text:0000000000000030 .L6
     /tmp/ccbuEeO6.s:208    .text:00000000000000e4 .L15
     /tmp/ccbuEeO6.s:466    .text:0000000000000234 .L32
     /tmp/ccbuEeO6.s:1997   .debug_abbrev:0000000000000000 .Ldebug_abbrev0
     /tmp/ccbuEeO6.s:3643   .debug_str:000000000000062b .LASF116
     /tmp/ccbuEeO6.s:3613   .debug_str:000000000000053b .LASF117
     /tmp/ccbuEeO6.s:3567   .debug_str:00000000000003cc .LASF118
     /tmp/ccbuEeO6.s:3415   .debug_ranges:0000000000000000 .Ldebug_ranges0
     /tmp/ccbuEeO6.s:3423   .debug_line:0000000000000000 .Ldebug_line0
     /tmp/ccbuEeO6.s:3559   .debug_str:00000000000003a8 .LASF0
     /tmp/ccbuEeO6.s:3577   .debug_str:000000000000042b .LASF1
     /tmp/ccbuEeO6.s:3543   .debug_str:000000000000034a .LASF2
     /tmp/ccbuEeO6.s:3511   .debug_str:000000000000026e .LASF4
GAS LISTING /tmp/ccbuEeO6.s 			page 20


     /tmp/ccbuEeO6.s:3623   .debug_str:000000000000057f .LASF3
     /tmp/ccbuEeO6.s:3445   .debug_str:000000000000006e .LASF5
     /tmp/ccbuEeO6.s:3581   .debug_str:0000000000000451 .LASF6
     /tmp/ccbuEeO6.s:3557   .debug_str:0000000000000395 .LASF7
     /tmp/ccbuEeO6.s:3655   .debug_str:000000000000072d .LASF8
     /tmp/ccbuEeO6.s:3497   .debug_str:00000000000001fd .LASF9
     /tmp/ccbuEeO6.s:3595   .debug_str:00000000000004b3 .LASF10
     /tmp/ccbuEeO6.s:3647   .debug_str:00000000000006fa .LASF11
     /tmp/ccbuEeO6.s:3449   .debug_str:000000000000008b .LASF12
     /tmp/ccbuEeO6.s:3429   .debug_str:0000000000000011 .LASF13
     /tmp/ccbuEeO6.s:3459   .debug_str:00000000000000f1 .LASF14
     /tmp/ccbuEeO6.s:3617   .debug_str:000000000000055a .LASF15
     /tmp/ccbuEeO6.s:3465   .debug_str:0000000000000122 .LASF16
     /tmp/ccbuEeO6.s:3435   .debug_str:0000000000000030 .LASF119
     /tmp/ccbuEeO6.s:3607   .debug_str:0000000000000514 .LASF25
     /tmp/ccbuEeO6.s:3453   .debug_str:00000000000000aa .LASF27
     /tmp/ccbuEeO6.s:3583   .debug_str:0000000000000464 .LASF17
     /tmp/ccbuEeO6.s:3589   .debug_str:000000000000047b .LASF19
     /tmp/ccbuEeO6.s:3433   .debug_str:0000000000000026 .LASF18
     /tmp/ccbuEeO6.s:3523   .debug_str:00000000000002a1 .LASF20
     /tmp/ccbuEeO6.s:3629   .debug_str:00000000000005ae .LASF21
     /tmp/ccbuEeO6.s:3539   .debug_str:000000000000031b .LASF22
     /tmp/ccbuEeO6.s:3521   .debug_str:000000000000029a .LASF23
     /tmp/ccbuEeO6.s:3527   .debug_str:00000000000002c3 .LASF24
     /tmp/ccbuEeO6.s:3545   .debug_str:0000000000000358 .LASF26
     /tmp/ccbuEeO6.s:3437   .debug_str:0000000000000038 .LASF28
     /tmp/ccbuEeO6.s:3515   .debug_str:0000000000000281 .LASF29
     /tmp/ccbuEeO6.s:3601   .debug_str:00000000000004e3 .LASF30
     /tmp/ccbuEeO6.s:3665   .debug_str:000000000000077a .LASF31
     /tmp/ccbuEeO6.s:3681   .debug_str:0000000000000809 .LASF32
     /tmp/ccbuEeO6.s:3535   .debug_str:0000000000000300 .LASF33
     /tmp/ccbuEeO6.s:3489   .debug_str:00000000000001b2 .LASF34
     /tmp/ccbuEeO6.s:3525   .debug_str:00000000000002b6 .LASF35
     /tmp/ccbuEeO6.s:3683   .debug_str:000000000000082b .LASF36
     /tmp/ccbuEeO6.s:3605   .debug_str:000000000000050f .LASF120
     /tmp/ccbuEeO6.s:3475   .debug_str:0000000000000170 .LASF121
     /tmp/ccbuEeO6.s:3633   .debug_str:00000000000005d4 .LASF122
     /tmp/ccbuEeO6.s:3519   .debug_str:0000000000000295 .LASF37
     /tmp/ccbuEeO6.s:3563   .debug_str:00000000000003be .LASF38
     /tmp/ccbuEeO6.s:3565   .debug_str:00000000000003c4 .LASF39
     /tmp/ccbuEeO6.s:3569   .debug_str:00000000000003ec .LASF40
     /tmp/ccbuEeO6.s:3517   .debug_str:000000000000028c .LASF41
     /tmp/ccbuEeO6.s:3427   .debug_str:0000000000000009 .LASF42
     /tmp/ccbuEeO6.s:3547   .debug_str:0000000000000364 .LASF43
     /tmp/ccbuEeO6.s:3537   .debug_str:000000000000030d .LASF44
     /tmp/ccbuEeO6.s:3591   .debug_str:0000000000000492 .LASF46
     /tmp/ccbuEeO6.s:3661   .debug_str:000000000000075f .LASF52
     /tmp/ccbuEeO6.s:3457   .debug_str:00000000000000c9 .LASF54
     /tmp/ccbuEeO6.s:3561   .debug_str:00000000000003b5 .LASF45
     /tmp/ccbuEeO6.s:3503   .debug_str:000000000000022a .LASF47
     /tmp/ccbuEeO6.s:3625   .debug_str:0000000000000591 .LASF123
     /tmp/ccbuEeO6.s:3663   .debug_str:000000000000076d .LASF48
     /tmp/ccbuEeO6.s:3513   .debug_str:0000000000000275 .LASF50
     /tmp/ccbuEeO6.s:3491   .debug_str:00000000000001cb .LASF49
     /tmp/ccbuEeO6.s:3461   .debug_str:00000000000000fd .LASF51
     /tmp/ccbuEeO6.s:3631   .debug_str:00000000000005c4 .LASF53
     /tmp/ccbuEeO6.s:3635   .debug_str:00000000000005ea .LASF55
GAS LISTING /tmp/ccbuEeO6.s 			page 21


     /tmp/ccbuEeO6.s:3571   .debug_str:00000000000003f6 .LASF83
     /tmp/ccbuEeO6.s:3667   .debug_str:0000000000000791 .LASF85
     /tmp/ccbuEeO6.s:3483   .debug_str:0000000000000192 .LASF56
     /tmp/ccbuEeO6.s:3425   .debug_str:0000000000000000 .LASF57
     /tmp/ccbuEeO6.s:3473   .debug_str:000000000000016a .LASF58
     /tmp/ccbuEeO6.s:3645   .debug_str:00000000000006ef .LASF124
     /tmp/ccbuEeO6.s:3507   .debug_str:0000000000000254 .LASF59
     /tmp/ccbuEeO6.s:3431   .debug_str:0000000000000021 .LASF101
     /tmp/ccbuEeO6.s:3455   .debug_str:00000000000000b6 .LASF125
     /tmp/ccbuEeO6.s:3549   .debug_str:000000000000036d .LASF60
     /tmp/ccbuEeO6.s:3579   .debug_str:000000000000043e .LASF61
     /tmp/ccbuEeO6.s:3585   .debug_str:000000000000046f .LASF62
     /tmp/ccbuEeO6.s:3531   .debug_str:00000000000002e5 .LASF63
     /tmp/ccbuEeO6.s:3673   .debug_str:00000000000007b5 .LASF71
     /tmp/ccbuEeO6.s:3443   .debug_str:000000000000005e .LASF73
     /tmp/ccbuEeO6.s:3649   .debug_str:0000000000000709 .LASF64
     /tmp/ccbuEeO6.s:3611   .debug_str:0000000000000530 .LASF76
     /tmp/ccbuEeO6.s:3671   .debug_str:00000000000007a3 .LASF78
     /tmp/ccbuEeO6.s:3481   .debug_str:000000000000018d .LASF65
     /tmp/ccbuEeO6.s:3675   .debug_str:00000000000007ca .LASF66
     /tmp/ccbuEeO6.s:3587   .debug_str:0000000000000474 .LASF67
     /tmp/ccbuEeO6.s:3609   .debug_str:0000000000000519 .LASF68
     /tmp/ccbuEeO6.s:3677   .debug_str:00000000000007df .LASF69
     /tmp/ccbuEeO6.s:3657   .debug_str:000000000000073d .LASF126
     /tmp/ccbuEeO6.s:3651   .debug_str:000000000000071b .LASF70
     /tmp/ccbuEeO6.s:3551   .debug_str:0000000000000372 .LASF72
     /tmp/ccbuEeO6.s:3541   .debug_str:000000000000033d .LASF74
     /tmp/ccbuEeO6.s:3599   .debug_str:00000000000004cc .LASF75
     /tmp/ccbuEeO6.s:3441   .debug_str:0000000000000056 .LASF77
     /tmp/ccbuEeO6.s:3451   .debug_str:000000000000009b .LASF79
     /tmp/ccbuEeO6.s:3575   .debug_str:0000000000000425 .LASF80
     /tmp/ccbuEeO6.s:3493   .debug_str:00000000000001db .LASF81
     /tmp/ccbuEeO6.s:3447   .debug_str:0000000000000075 .LASF127
     /tmp/ccbuEeO6.s:3495   .debug_str:00000000000001ee .LASF82
     /tmp/ccbuEeO6.s:3533   .debug_str:00000000000002ef .LASF128
     /tmp/ccbuEeO6.s:3593   .debug_str:00000000000004ab .LASF84
     /tmp/ccbuEeO6.s:3603   .debug_str:00000000000004f9 .LASF86
     /tmp/ccbuEeO6.s:604    .text:00000000000002f0 .LFB47
     /tmp/ccbuEeO6.s:630    .text:0000000000000318 .LFE47
     /tmp/ccbuEeO6.s:3112   .debug_loc:0000000000000000 .LLST17
     /tmp/ccbuEeO6.s:619    .text:0000000000000308 .LVL44
     /tmp/ccbuEeO6.s:573    .text:00000000000002c8 .LFB46
     /tmp/ccbuEeO6.s:598    .text:00000000000002f0 .LFE46
     /tmp/ccbuEeO6.s:587    .text:00000000000002e0 .LVL42
     /tmp/ccbuEeO6.s:3439   .debug_str:000000000000004f .LASF87
     /tmp/ccbuEeO6.s:393    .text:00000000000001cc .LFB45
     /tmp/ccbuEeO6.s:419    .text:00000000000001f4 .LFE45
     /tmp/ccbuEeO6.s:3126   .debug_loc:0000000000000039 .LLST12
     /tmp/ccbuEeO6.s:408    .text:00000000000001e4 .LVL28
     /tmp/ccbuEeO6.s:3619   .debug_str:0000000000000570 .LASF88
     /tmp/ccbuEeO6.s:361    .text:00000000000001a4 .LFB44
     /tmp/ccbuEeO6.s:387    .text:00000000000001cc .LFE44
     /tmp/ccbuEeO6.s:3140   .debug_loc:0000000000000072 .LLST11
     /tmp/ccbuEeO6.s:376    .text:00000000000001bc .LVL26
     /tmp/ccbuEeO6.s:327    .text:0000000000000178 .LFB43
     /tmp/ccbuEeO6.s:355    .text:00000000000001a4 .LFE43
     /tmp/ccbuEeO6.s:3669   .debug_str:000000000000079e .LASF89
GAS LISTING /tmp/ccbuEeO6.s 			page 22


     /tmp/ccbuEeO6.s:3154   .debug_loc:00000000000000ab .LLST10
     /tmp/ccbuEeO6.s:344    .text:0000000000000194 .LVL24
     /tmp/ccbuEeO6.s:293    .text:000000000000014c .LFB42
     /tmp/ccbuEeO6.s:321    .text:0000000000000178 .LFE42
     /tmp/ccbuEeO6.s:3168   .debug_loc:00000000000000e4 .LLST9
     /tmp/ccbuEeO6.s:310    .text:0000000000000168 .LVL21
     /tmp/ccbuEeO6.s:3597   .debug_str:00000000000004c2 .LASF90
     /tmp/ccbuEeO6.s:3487   .debug_str:00000000000001a0 .LASF91
     /tmp/ccbuEeO6.s:534    .text:0000000000000288 .LFB41
     /tmp/ccbuEeO6.s:567    .text:00000000000002c8 .LFE41
     /tmp/ccbuEeO6.s:3182   .debug_loc:000000000000011d .LLST16
     /tmp/ccbuEeO6.s:551    .text:00000000000002a8 .LVL39
     /tmp/ccbuEeO6.s:554    .text:00000000000002b4 .LVL40
     /tmp/ccbuEeO6.s:3509   .debug_str:000000000000025c .LASF92
     /tmp/ccbuEeO6.s:80     .text:0000000000000034 .LFB39
     /tmp/ccbuEeO6.s:115    .text:000000000000006c .LFE39
     /tmp/ccbuEeO6.s:3200   .debug_loc:0000000000000169 .LLST2
     /tmp/ccbuEeO6.s:103    .text:000000000000005c .LVL6
     /tmp/ccbuEeO6.s:3501   .debug_str:0000000000000225 .LASF97
     /tmp/ccbuEeO6.s:3659   .debug_str:000000000000074d .LASF93
     /tmp/ccbuEeO6.s:252    .text:0000000000000114 .LFB36
     /tmp/ccbuEeO6.s:285    .text:000000000000014c .LFE36
     /tmp/ccbuEeO6.s:3214   .debug_loc:00000000000001a2 .LLST7
     /tmp/ccbuEeO6.s:3234   .debug_loc:00000000000001f0 .LLST8
     /tmp/ccbuEeO6.s:273    .text:000000000000013c .LVL18
     /tmp/ccbuEeO6.s:37     .text:0000000000000000 .LFB34
     /tmp/ccbuEeO6.s:74     .text:0000000000000034 .LFE34
     /tmp/ccbuEeO6.s:3553   .debug_str:0000000000000384 .LASF94
     /tmp/ccbuEeO6.s:3248   .debug_loc:0000000000000229 .LLST0
     /tmp/ccbuEeO6.s:3266   .debug_loc:0000000000000275 .LLST1
     /tmp/ccbuEeO6.s:60     .text:0000000000000020 .LVL2
     /tmp/ccbuEeO6.s:221    .text:00000000000000ec .LFB33
     /tmp/ccbuEeO6.s:246    .text:0000000000000114 .LFE33
     /tmp/ccbuEeO6.s:235    .text:0000000000000104 .LVL15
     /tmp/ccbuEeO6.s:172    .text:00000000000000a4 .LFB32
     /tmp/ccbuEeO6.s:215    .text:00000000000000ec .LFE32
     /tmp/ccbuEeO6.s:3284   .debug_loc:00000000000002c1 .LLST6
     /tmp/ccbuEeO6.s:197    .text:00000000000000d4 .LVL12
     /tmp/ccbuEeO6.s:3467   .debug_str:0000000000000138 .LASF95
     /tmp/ccbuEeO6.s:495    .text:0000000000000248 .LFB31
     /tmp/ccbuEeO6.s:528    .text:0000000000000288 .LFE31
     /tmp/ccbuEeO6.s:3313   .debug_loc:0000000000000336 .LLST15
     /tmp/ccbuEeO6.s:512    .text:0000000000000268 .LVL35
     /tmp/ccbuEeO6.s:515    .text:0000000000000274 .LVL36
     /tmp/ccbuEeO6.s:3641   .debug_str:000000000000061c .LASF96
     /tmp/ccbuEeO6.s:425    .text:00000000000001f4 .LFB29
     /tmp/ccbuEeO6.s:480    .text:0000000000000248 .LFE29
     /tmp/ccbuEeO6.s:3331   .debug_loc:0000000000000382 .LLST13
     /tmp/ccbuEeO6.s:451    .text:000000000000021c .LBB10
     /tmp/ccbuEeO6.s:461    .text:0000000000000228 .LBE10
     /tmp/ccbuEeO6.s:3345   .debug_loc:00000000000003bb .LLST14
     /tmp/ccbuEeO6.s:459    .text:0000000000000228 .LVL32
     /tmp/ccbuEeO6.s:465    .text:0000000000000234 .LVL33
     /tmp/ccbuEeO6.s:3505   .debug_str:000000000000023d .LASF98
     /tmp/ccbuEeO6.s:131    .text:000000000000006c .LFB26
     /tmp/ccbuEeO6.s:164    .text:00000000000000a4 .LFE26
     /tmp/ccbuEeO6.s:3352   .debug_loc:00000000000003de .LLST3
GAS LISTING /tmp/ccbuEeO6.s 			page 23


     /tmp/ccbuEeO6.s:3372   .debug_loc:000000000000042c .LLST4
     /tmp/ccbuEeO6.s:3386   .debug_loc:0000000000000465 .LLST5
     /tmp/ccbuEeO6.s:152    .text:0000000000000094 .LVL9
     /tmp/ccbuEeO6.s:11     .text._ZN6Thread3runEv:0000000000000000 .LFB24
     /tmp/ccbuEeO6.s:30     .text._ZN6Thread3runEv:0000000000000018 .LFE24
     /tmp/ccbuEeO6.s:3627   .debug_str:00000000000005a2 .LASF129
     /tmp/ccbuEeO6.s:3485   .debug_str:0000000000000197 .LASF99
     /tmp/ccbuEeO6.s:3621   .debug_str:0000000000000576 .LASF100
     /tmp/ccbuEeO6.s:3615   .debug_str:000000000000054f .LASF102
     /tmp/ccbuEeO6.s:3477   .debug_str:0000000000000178 .LASF103
     /tmp/ccbuEeO6.s:3573   .debug_str:0000000000000409 .LASF104
     /tmp/ccbuEeO6.s:3653   .debug_str:0000000000000722 .LASF105
     /tmp/ccbuEeO6.s:3463   .debug_str:0000000000000109 .LASF106
     /tmp/ccbuEeO6.s:3555   .debug_str:000000000000038c .LASF107
     /tmp/ccbuEeO6.s:3499   .debug_str:000000000000020b .LASF108
     /tmp/ccbuEeO6.s:3637   .debug_str:00000000000005f7 .LASF109
     /tmp/ccbuEeO6.s:3639   .debug_str:0000000000000601 .LASF110
     /tmp/ccbuEeO6.s:3479   .debug_str:0000000000000184 .LASF111
     /tmp/ccbuEeO6.s:3471   .debug_str:0000000000000155 .LASF112
     /tmp/ccbuEeO6.s:3529   .debug_str:00000000000002d5 .LASF113
     /tmp/ccbuEeO6.s:3679   .debug_str:00000000000007e8 .LASF114
     /tmp/ccbuEeO6.s:3469   .debug_str:0000000000000147 .LASF115
     /tmp/ccbuEeO6.s:607    .text:00000000000002f0 .LVL43
     /tmp/ccbuEeO6.s:396    .text:00000000000001cc .LVL27
     /tmp/ccbuEeO6.s:364    .text:00000000000001a4 .LVL25
     /tmp/ccbuEeO6.s:330    .text:0000000000000178 .LVL22
     /tmp/ccbuEeO6.s:342    .text:000000000000018c .LVL23
     /tmp/ccbuEeO6.s:296    .text:000000000000014c .LVL19
     /tmp/ccbuEeO6.s:308    .text:0000000000000160 .LVL20
     /tmp/ccbuEeO6.s:537    .text:0000000000000288 .LVL38
     /tmp/ccbuEeO6.s:562    .text:00000000000002c0 .LVL41
     /tmp/ccbuEeO6.s:85     .text:0000000000000034 .LVL4
     /tmp/ccbuEeO6.s:101    .text:0000000000000054 .LVL5
     /tmp/ccbuEeO6.s:255    .text:0000000000000114 .LVL16
     /tmp/ccbuEeO6.s:271    .text:0000000000000134 .LVL17
     /tmp/ccbuEeO6.s:41     .text:0000000000000000 .LVL1
     /tmp/ccbuEeO6.s:70     .text:0000000000000030 .LVL3
     /tmp/ccbuEeO6.s:175    .text:00000000000000a4 .LVL10
     /tmp/ccbuEeO6.s:195    .text:00000000000000cc .LVL11
     /tmp/ccbuEeO6.s:207    .text:00000000000000e4 .LVL13
     /tmp/ccbuEeO6.s:211    .text:00000000000000e8 .LVL14
     /tmp/ccbuEeO6.s:498    .text:0000000000000248 .LVL34
     /tmp/ccbuEeO6.s:523    .text:0000000000000280 .LVL37
     /tmp/ccbuEeO6.s:430    .text:00000000000001f4 .LVL29
     /tmp/ccbuEeO6.s:457    .text:0000000000000220 .LVL31
     /tmp/ccbuEeO6.s:450    .text:000000000000021c .LVL30
     /tmp/ccbuEeO6.s:134    .text:000000000000006c .LVL7
     /tmp/ccbuEeO6.s:150    .text:000000000000008c .LVL8
     /tmp/ccbuEeO6.s:659    .debug_info:0000000000000000 .Ldebug_info0
     /tmp/ccbuEeO6.s:5      .text:0000000000000000 .Ltext0
     /tmp/ccbuEeO6.s:654    .text:0000000000000318 .Letext0
     /tmp/ccbuEeO6.s:118    .gcc_except_table:0000000000000000 .LLSDA39
     /tmp/ccbuEeO6.s:482    .gcc_except_table:0000000000000004 .LLSDA29

UNDEFINED SYMBOLS
_Z9sem_closeP10SemaphoreK
__gxx_personality_v0
GAS LISTING /tmp/ccbuEeO6.s 			page 24


_Z13thread_createPP3PCBPFvPvES2_
_Z15thread_dispatchv
_Z8sem_openPP10SemaphoreKj
_Z8sem_waitP10SemaphoreK
_Z10sem_signalP10SemaphoreK
__mem_alloc
__mem_free
_Z4getcv
_Z4putcc
