GAS LISTING /tmp/ccDPvXtn.s 			page 1


   1              		.file	"printing.cpp"
   2              		.option pic
   3              		.option norelax
   4              		.text
   5              	.Ltext0:
   6              		.align	2
   7              		.globl	_Z11printStringPKc
   9              	_Z11printStringPKc:
  10              	.LFB37:
  11              		.file 1 "test/printing.cpp"
   1:test/printing.cpp **** //
   2:test/printing.cpp **** // Created by os on 5/18/22.
   3:test/printing.cpp **** //
   4:test/printing.cpp **** 
   5:test/printing.cpp **** #include "printing.hpp"
   6:test/printing.cpp **** #include "../lib/console.h"
   7:test/printing.cpp **** #include "../h/riscv.hpp"
   8:test/printing.cpp **** 
   9:test/printing.cpp **** uint64 lockPrint = 0;
  10:test/printing.cpp **** 
  11:test/printing.cpp **** #define LOCK() while(copy_and_swap(lockPrint, 0, 1))
  12:test/printing.cpp **** #define UNLOCK() while(copy_and_swap(lockPrint, 1, 0))
  13:test/printing.cpp **** 
  14:test/printing.cpp **** void printString(char const *string)
  15:test/printing.cpp **** {
  12              		.loc 1 15 1
  13              		.cfi_startproc
  14              	.LVL0:
  15 0000 130101FE 		addi	sp,sp,-32
  16              		.cfi_def_cfa_offset 32
  17 0004 233C1100 		sd	ra,24(sp)
  18 0008 23388100 		sd	s0,16(sp)
  19 000c 23349100 		sd	s1,8(sp)
  20              		.cfi_offset 1, -8
  21              		.cfi_offset 8, -16
  22              		.cfi_offset 9, -24
  23 0010 13040102 		addi	s0,sp,32
  24              		.cfi_def_cfa 8, 0
  25 0014 93040500 		mv	s1,a0
  26              	.LVL1:
  27              	.L2:
  16:test/printing.cpp ****     LOCK();
  28              		.loc 1 16 5
  29              		.loc 1 16 5
  30 0018 13061000 		li	a2,1
  31 001c 93050000 		li	a1,0
  32 0020 17050000 		lla	a0,.LANCHOR0
  32      13050500 
  33 0028 97000000 		call	copy_and_swap@plt
  33      E7800000 
  34              	.LVL2:
  35 0030 E31405FE 		bnez	a0,.L2
  36              	.L4:
  17:test/printing.cpp ****     //zabranjujemo prekide sve dok traje ispis i prvo citamo sta je stari status da znamo sta je bi
  18:test/printing.cpp ****     //uint64 sstatus = Riscv::r_sstatus();
  19:test/printing.cpp ****     //bezuslovno onemogucavamo prekide
  20:test/printing.cpp ****     //Riscv::mc_sstatus(Riscv::SSTATUS_SIE);
GAS LISTING /tmp/ccDPvXtn.s 			page 2


  21:test/printing.cpp ****     while (*string != '\0')
  37              		.loc 1 21 5
  38              		.loc 1 21 20
  39              		.loc 1 21 12 is_stmt 0
  40 0034 03C50400 		lbu	a0,0(s1)
  41              		.loc 1 21 20
  42 0038 630A0500 		beqz	a0,.L3
  22:test/printing.cpp ****     {
  23:test/printing.cpp ****         __putc(*string);
  43              		.loc 1 23 9 is_stmt 1
  44              		.loc 1 23 15 is_stmt 0
  45 003c 97000000 		call	__putc@plt
  45      E7800000 
  46              	.LVL3:
  24:test/printing.cpp ****         string++;
  47              		.loc 1 24 9 is_stmt 1
  48              		.loc 1 24 15 is_stmt 0
  49 0044 93841400 		addi	s1,s1,1
  50              	.LVL4:
  21:test/printing.cpp ****     {
  51              		.loc 1 21 5
  52 0048 6FF0DFFE 		j	.L4
  53              	.L3:
  25:test/printing.cpp ****     }
  26:test/printing.cpp ****     UNLOCK();
  54              		.loc 1 26 5 is_stmt 1
  55              		.loc 1 26 5
  56 004c 13060000 		li	a2,0
  57 0050 93051000 		li	a1,1
  58 0054 17050000 		lla	a0,.LANCHOR0
  58      13050500 
  59 005c 97000000 		call	copy_and_swap@plt
  59      E7800000 
  60              	.LVL5:
  61 0064 E31405FE 		bnez	a0,.L3
  27:test/printing.cpp ****     //Riscv::ms_sstatus(sstatus & Riscv::SSTATUS_SIE ? Riscv::SSTATUS_SIE : 0);
  28:test/printing.cpp **** }
  62              		.loc 1 28 1 is_stmt 0
  63 0068 83308101 		ld	ra,24(sp)
  64              		.cfi_restore 1
  65 006c 03340101 		ld	s0,16(sp)
  66              		.cfi_restore 8
  67              		.cfi_def_cfa 2, 32
  68 0070 83348100 		ld	s1,8(sp)
  69              		.cfi_restore 9
  70              	.LVL6:
  71 0074 13010102 		addi	sp,sp,32
  72              		.cfi_def_cfa_offset 0
  73 0078 67800000 		jr	ra
  74              		.cfi_endproc
  75              	.LFE37:
  77              		.align	2
  78              		.globl	_Z9getStringPci
  80              	_Z9getStringPci:
  81              	.LFB38:
  29:test/printing.cpp **** 
  30:test/printing.cpp **** char* getString(char *buf, int max) {
GAS LISTING /tmp/ccDPvXtn.s 			page 3


  82              		.loc 1 30 37 is_stmt 1
  83              		.cfi_startproc
  84              	.LVL7:
  85 007c 130101FD 		addi	sp,sp,-48
  86              		.cfi_def_cfa_offset 48
  87 0080 23341102 		sd	ra,40(sp)
  88 0084 23308102 		sd	s0,32(sp)
  89 0088 233C9100 		sd	s1,24(sp)
  90 008c 23382101 		sd	s2,16(sp)
  91 0090 23343101 		sd	s3,8(sp)
  92 0094 23304101 		sd	s4,0(sp)
  93              		.cfi_offset 1, -8
  94              		.cfi_offset 8, -16
  95              		.cfi_offset 9, -24
  96              		.cfi_offset 18, -32
  97              		.cfi_offset 19, -40
  98              		.cfi_offset 20, -48
  99 0098 13040103 		addi	s0,sp,48
 100              		.cfi_def_cfa 8, 0
 101 009c 93090500 		mv	s3,a0
 102 00a0 138A0500 		mv	s4,a1
 103              	.LVL8:
 104              	.L7:
  31:test/printing.cpp ****     LOCK();
 105              		.loc 1 31 5
 106              		.loc 1 31 5
 107 00a4 13061000 		li	a2,1
 108 00a8 93050000 		li	a1,0
 109 00ac 17050000 		lla	a0,.LANCHOR0
 109      13050500 
 110 00b4 97000000 		call	copy_and_swap@plt
 110      E7800000 
 111              	.LVL9:
 112 00bc E31405FE 		bnez	a0,.L7
  32:test/printing.cpp ****     int i, cc;
  33:test/printing.cpp ****     char c;
  34:test/printing.cpp **** 
  35:test/printing.cpp ****     for(i=0; i+1 < max; ){
 113              		.loc 1 35 10 is_stmt 0
 114 00c0 13090000 		li	s2,0
 115              	.L9:
 116              	.LVL10:
 117              		.loc 1 35 18 is_stmt 1 discriminator 1
 118 00c4 93040900 		mv	s1,s2
 119              		.loc 1 35 15 is_stmt 0 discriminator 1
 120 00c8 1B091900 		addiw	s2,s2,1
 121              	.LVL11:
 122              		.loc 1 35 18 discriminator 1
 123 00cc 635A4903 		bge	s2,s4,.L8
  36:test/printing.cpp ****         cc = __getc();
 124              		.loc 1 36 9 is_stmt 1
 125              		.loc 1 36 20 is_stmt 0
 126 00d0 97000000 		call	__getc@plt
 126      E7800000 
 127              	.LVL12:
  37:test/printing.cpp ****         if(cc < 1)
 128              		.loc 1 37 9 is_stmt 1
GAS LISTING /tmp/ccDPvXtn.s 			page 4


 129 00d8 63040502 		beqz	a0,.L8
  38:test/printing.cpp ****             break;
  39:test/printing.cpp ****         c = cc;
 130              		.loc 1 39 9
 131              	.LVL13:
  40:test/printing.cpp ****         buf[i++] = c;
 132              		.loc 1 40 9
 133              		.loc 1 40 16 is_stmt 0
 134 00dc B3849900 		add	s1,s3,s1
 135              		.loc 1 40 18
 136 00e0 2380A400 		sb	a0,0(s1)
  41:test/printing.cpp ****         if(c == '\n' || c == '\r')
 137              		.loc 1 41 9 is_stmt 1
 138 00e4 9307A000 		li	a5,10
 139 00e8 630AF500 		beq	a0,a5,.L11
 140              		.loc 1 41 22 is_stmt 0 discriminator 1
 141 00ec 9307D000 		li	a5,13
 142 00f0 E31AF5FC 		bne	a0,a5,.L9
  40:test/printing.cpp ****         buf[i++] = c;
 143              		.loc 1 40 14
 144 00f4 93040900 		mv	s1,s2
 145 00f8 6F008000 		j	.L8
 146              	.L11:
 147 00fc 93040900 		mv	s1,s2
 148              	.LVL14:
 149              	.L8:
  42:test/printing.cpp ****             break;
  43:test/printing.cpp ****     }
  44:test/printing.cpp ****     buf[i] = '\0';
 150              		.loc 1 44 5 is_stmt 1
 151              		.loc 1 44 10 is_stmt 0
 152 0100 B3849900 		add	s1,s3,s1
 153              	.LVL15:
 154              		.loc 1 44 12
 155 0104 23800400 		sb	zero,0(s1)
 156              	.L10:
  45:test/printing.cpp **** 
  46:test/printing.cpp ****     UNLOCK();
 157              		.loc 1 46 5 is_stmt 1
 158              		.loc 1 46 5
 159 0108 13060000 		li	a2,0
 160 010c 93051000 		li	a1,1
 161 0110 17050000 		lla	a0,.LANCHOR0
 161      13050500 
 162 0118 97000000 		call	copy_and_swap@plt
 162      E7800000 
 163              	.LVL16:
 164 0120 E31405FE 		bnez	a0,.L10
  47:test/printing.cpp ****     return buf;
 165              		.loc 1 47 5
  48:test/printing.cpp **** }
 166              		.loc 1 48 1 is_stmt 0
 167 0124 13850900 		mv	a0,s3
 168 0128 83308102 		ld	ra,40(sp)
 169              		.cfi_restore 1
 170 012c 03340102 		ld	s0,32(sp)
 171              		.cfi_restore 8
GAS LISTING /tmp/ccDPvXtn.s 			page 5


 172              		.cfi_def_cfa 2, 48
 173 0130 83348101 		ld	s1,24(sp)
 174              		.cfi_restore 9
 175 0134 03390101 		ld	s2,16(sp)
 176              		.cfi_restore 18
 177 0138 83398100 		ld	s3,8(sp)
 178              		.cfi_restore 19
 179              	.LVL17:
 180 013c 033A0100 		ld	s4,0(sp)
 181              		.cfi_restore 20
 182 0140 13010103 		addi	sp,sp,48
 183              		.cfi_def_cfa_offset 0
 184 0144 67800000 		jr	ra
 185              		.cfi_endproc
 186              	.LFE38:
 188              		.align	2
 189              		.globl	_Z11stringToIntPKc
 191              	_Z11stringToIntPKc:
 192              	.LFB39:
  49:test/printing.cpp **** 
  50:test/printing.cpp **** int stringToInt(const char *s) {
 193              		.loc 1 50 32 is_stmt 1
 194              		.cfi_startproc
 195              	.LVL18:
 196 0148 130101FF 		addi	sp,sp,-16
 197              		.cfi_def_cfa_offset 16
 198 014c 23348100 		sd	s0,8(sp)
 199              		.cfi_offset 8, -8
 200 0150 13040101 		addi	s0,sp,16
 201              		.cfi_def_cfa 8, 0
 202 0154 93060500 		mv	a3,a0
  51:test/printing.cpp ****     int n;
 203              		.loc 1 51 5
  52:test/printing.cpp **** 
  53:test/printing.cpp ****     n = 0;
 204              		.loc 1 53 5
 205              	.LVL19:
 206              		.loc 1 53 7 is_stmt 0
 207 0158 13050000 		li	a0,0
 208              	.LVL20:
 209              	.L15:
  54:test/printing.cpp ****     while ('0' <= *s && *s <= '9')
 210              		.loc 1 54 5 is_stmt 1
 211              		.loc 1 54 22
 212              		.loc 1 54 19 is_stmt 0
 213 015c 03C60600 		lbu	a2,0(a3)
 214              		.loc 1 54 22
 215 0160 1B0706FD 		addiw	a4,a2,-48
 216 0164 1377F70F 		andi	a4,a4,0xff
 217 0168 93079000 		li	a5,9
 218 016c 63E0E702 		bgtu	a4,a5,.L14
  55:test/printing.cpp ****         n = n * 10 + *s++ - '0';
 219              		.loc 1 55 9 is_stmt 1
 220              		.loc 1 55 15 is_stmt 0
 221 0170 9B172500 		slliw	a5,a0,2
 222 0174 BB87A700 		addw	a5,a5,a0
 223 0178 9B971700 		slliw	a5,a5,1
GAS LISTING /tmp/ccDPvXtn.s 			page 6


 224              		.loc 1 55 24
 225 017c 93861600 		addi	a3,a3,1
 226              	.LVL21:
 227              		.loc 1 55 20
 228 0180 BB87C700 		addw	a5,a5,a2
 229              		.loc 1 55 11
 230 0184 1B8507FD 		addiw	a0,a5,-48
 231              	.LVL22:
  54:test/printing.cpp ****     while ('0' <= *s && *s <= '9')
 232              		.loc 1 54 5
 233 0188 6FF05FFD 		j	.L15
 234              	.LVL23:
 235              	.L14:
  56:test/printing.cpp ****     return n;
 236              		.loc 1 56 5 is_stmt 1
  57:test/printing.cpp **** }
 237              		.loc 1 57 1 is_stmt 0
 238 018c 03348100 		ld	s0,8(sp)
 239              		.cfi_restore 8
 240              		.cfi_def_cfa 2, 16
 241 0190 13010101 		addi	sp,sp,16
 242              		.cfi_def_cfa_offset 0
 243 0194 67800000 		jr	ra
 244              		.cfi_endproc
 245              	.LFE39:
 247              		.align	2
 248              		.globl	_Z8printIntiii
 250              	_Z8printIntiii:
 251              	.LFB40:
  58:test/printing.cpp **** 
  59:test/printing.cpp **** char digits[] = "0123456789ABCDEF";
  60:test/printing.cpp **** 
  61:test/printing.cpp **** void printInt(int xx, int base, int sgn)
  62:test/printing.cpp **** {
 252              		.loc 1 62 1 is_stmt 1
 253              		.cfi_startproc
 254              	.LVL24:
 255 0198 130101FC 		addi	sp,sp,-64
 256              		.cfi_def_cfa_offset 64
 257 019c 233C1102 		sd	ra,56(sp)
 258 01a0 23388102 		sd	s0,48(sp)
 259 01a4 23349102 		sd	s1,40(sp)
 260 01a8 23302103 		sd	s2,32(sp)
 261 01ac 233C3101 		sd	s3,24(sp)
 262 01b0 23384101 		sd	s4,16(sp)
 263              		.cfi_offset 1, -8
 264              		.cfi_offset 8, -16
 265              		.cfi_offset 9, -24
 266              		.cfi_offset 18, -32
 267              		.cfi_offset 19, -40
 268              		.cfi_offset 20, -48
 269 01b4 13040104 		addi	s0,sp,64
 270              		.cfi_def_cfa 8, 0
 271 01b8 13090500 		mv	s2,a0
 272 01bc 93890500 		mv	s3,a1
 273 01c0 130A0600 		mv	s4,a2
 274              	.LVL25:
GAS LISTING /tmp/ccDPvXtn.s 			page 7


 275              	.L18:
  63:test/printing.cpp ****     LOCK();
 276              		.loc 1 63 5
 277              		.loc 1 63 5
 278 01c4 13061000 		li	a2,1
 279 01c8 93050000 		li	a1,0
 280 01cc 17050000 		lla	a0,.LANCHOR0
 280      13050500 
 281 01d4 97000000 		call	copy_and_swap@plt
 281      E7800000 
 282              	.LVL26:
 283 01dc E31405FE 		bnez	a0,.L18
  64:test/printing.cpp ****     char buf[16];
 284              		.loc 1 64 5
  65:test/printing.cpp ****     int i, neg;
 285              		.loc 1 65 5
  66:test/printing.cpp ****     int x;
 286              		.loc 1 66 5
  67:test/printing.cpp **** 
  68:test/printing.cpp ****     neg = 0;
 287              		.loc 1 68 5
 288              	.LVL27:
  69:test/printing.cpp ****     if(sgn && xx < 0){
 289              		.loc 1 69 5
 290 01e0 63060A00 		beqz	s4,.L19
 291              		.loc 1 69 12 is_stmt 0 discriminator 1
 292 01e4 634A0906 		bltz	s2,.L26
  68:test/printing.cpp ****     if(sgn && xx < 0){
 293              		.loc 1 68 9
 294 01e8 130A0000 		li	s4,0
 295              	.LVL28:
 296              	.L19:
  70:test/printing.cpp ****         neg = 1;
  71:test/printing.cpp ****         x = -xx;
  72:test/printing.cpp ****     } else {
  73:test/printing.cpp ****         x = xx;
  74:test/printing.cpp ****     }
  75:test/printing.cpp **** 
  76:test/printing.cpp ****     i = 0;
 297              		.loc 1 76 5 is_stmt 1
 298              		.loc 1 76 7 is_stmt 0
 299 01ec 93040000 		li	s1,0
 300              	.LVL29:
 301              	.L20:
  77:test/printing.cpp ****     do{
 302              		.loc 1 77 5 is_stmt 1
  78:test/printing.cpp ****         buf[i++] = digits[x % base];
 303              		.loc 1 78 9
 304              		.loc 1 78 29 is_stmt 0
 305 01f0 BB663903 		remw	a3,s2,s3
 306 01f4 13870400 		mv	a4,s1
 307              		.loc 1 78 14
 308 01f8 9B841400 		addiw	s1,s1,1
 309              	.LVL30:
 310              		.loc 1 78 35
 311 01fc 97070000 		lla	a5,.LANCHOR1
 311      93870700 
GAS LISTING /tmp/ccDPvXtn.s 			page 8


 312 0204 B387D700 		add	a5,a5,a3
 313 0208 83C60700 		lbu	a3,0(a5)
 314              		.loc 1 78 18
 315 020c 930704FD 		addi	a5,s0,-48
 316 0210 B387E700 		add	a5,a5,a4
 317 0214 2388D7FE 		sb	a3,-16(a5)
  79:test/printing.cpp ****     }while((x /= base) != 0);
 318              		.loc 1 79 24 is_stmt 1
 319              		.loc 1 79 15 is_stmt 0
 320 0218 3B493903 		divw	s2,s2,s3
 321              	.LVL31:
 322              		.loc 1 79 24
 323 021c E31A09FC 		bnez	s2,.L20
  80:test/printing.cpp ****     if(neg)
 324              		.loc 1 80 5 is_stmt 1
 325 0220 630C0A00 		beqz	s4,.L23
  81:test/printing.cpp ****         buf[i++] = '-';
 326              		.loc 1 81 9
 327              	.LVL32:
 328              		.loc 1 81 18 is_stmt 0
 329 0224 930704FD 		addi	a5,s0,-48
 330 0228 B3849700 		add	s1,a5,s1
 331 022c 9307D002 		li	a5,45
 332 0230 2388F4FE 		sb	a5,-16(s1)
 333              		.loc 1 81 14
 334 0234 9B042700 		addiw	s1,a4,2
 335              	.LVL33:
 336              	.L23:
  82:test/printing.cpp **** 
  83:test/printing.cpp ****     while(--i >= 0)
 337              		.loc 1 83 5 is_stmt 1
 338              		.loc 1 83 15
 339 0238 9B84F4FF 		addiw	s1,s1,-1
 340              	.LVL34:
 341 023c 63C40402 		bltz	s1,.L22
  84:test/printing.cpp ****         __putc(buf[i]);
 342              		.loc 1 84 9
 343              		.loc 1 84 15 is_stmt 0
 344 0240 930704FD 		addi	a5,s0,-48
 345 0244 B3879700 		add	a5,a5,s1
 346 0248 03C507FF 		lbu	a0,-16(a5)
 347 024c 97000000 		call	__putc@plt
 347      E7800000 
 348              	.LVL35:
 349 0254 6FF05FFE 		j	.L23
 350              	.LVL36:
 351              	.L26:
  70:test/printing.cpp ****         x = -xx;
 352              		.loc 1 70 9 is_stmt 1
  71:test/printing.cpp ****     } else {
 353              		.loc 1 71 9
  71:test/printing.cpp ****     } else {
 354              		.loc 1 71 11 is_stmt 0
 355 0258 3B092041 		negw	s2,s2
  70:test/printing.cpp ****         x = -xx;
 356              		.loc 1 70 13
 357 025c 130A1000 		li	s4,1
GAS LISTING /tmp/ccDPvXtn.s 			page 9


  71:test/printing.cpp ****     } else {
 358              		.loc 1 71 11
 359 0260 6FF0DFF8 		j	.L19
 360              	.LVL37:
 361              	.L22:
  85:test/printing.cpp **** 
  86:test/printing.cpp ****     UNLOCK();
 362              		.loc 1 86 5 is_stmt 1
 363              		.loc 1 86 5
 364 0264 13060000 		li	a2,0
 365 0268 93051000 		li	a1,1
 366 026c 17050000 		lla	a0,.LANCHOR0
 366      13050500 
 367 0274 97000000 		call	copy_and_swap@plt
 367      E7800000 
 368              	.LVL38:
 369 027c E31405FE 		bnez	a0,.L22
  87:test/printing.cpp **** }...
 370              		.loc 1 87 1 is_stmt 0
 371 0280 83308103 		ld	ra,56(sp)
 372              		.cfi_restore 1
 373 0284 03340103 		ld	s0,48(sp)
 374              		.cfi_restore 8
 375              		.cfi_def_cfa 2, 64
 376 0288 83348102 		ld	s1,40(sp)
 377              		.cfi_restore 9
 378 028c 03390102 		ld	s2,32(sp)
 379              		.cfi_restore 18
 380 0290 83398101 		ld	s3,24(sp)
 381              		.cfi_restore 19
 382 0294 033A0101 		ld	s4,16(sp)
 383              		.cfi_restore 20
 384              	.LVL39:
 385 0298 13010104 		addi	sp,sp,64
 386              		.cfi_def_cfa_offset 0
 387 029c 67800000 		jr	ra
 388              		.cfi_endproc
 389              	.LFE40:
 391              		.globl	digits
 392              		.globl	lockPrint
 393              		.data
 394              		.align	3
 395              		.set	.LANCHOR1,. + 0
 398              	digits:
 399 0000 30313233 		.string	"0123456789ABCDEF"
 399      34353637 
 399      38394142 
 399      43444546 
 399      00
 400              		.bss
 401              		.align	3
 402              		.set	.LANCHOR0,. + 0
 405              	lockPrint:
 406 0000 00000000 		.zero	8
 406      00000000 
 407              		.text
 408              	.Letext0:
GAS LISTING /tmp/ccDPvXtn.s 			page 10


 409              		.file 2 "test/../h/../lib/hw.h"
 410              		.file 3 "test/printing.hpp"
 411              		.file 4 "test/../lib/console.h"
GAS LISTING /tmp/ccDPvXtn.s 			page 11


DEFINED SYMBOLS
                            *ABS*:0000000000000000 printing.cpp
     /tmp/ccDPvXtn.s:9      .text:0000000000000000 _Z11printStringPKc
     /tmp/ccDPvXtn.s:13     .text:0000000000000000 .L0 
     /tmp/ccDPvXtn.s:15     .text:0000000000000000 .L0 
     /tmp/ccDPvXtn.s:16     .text:0000000000000004 .L0 
     /tmp/ccDPvXtn.s:20     .text:0000000000000010 .L0 
     /tmp/ccDPvXtn.s:21     .text:0000000000000010 .L0 
     /tmp/ccDPvXtn.s:22     .text:0000000000000010 .L0 
     /tmp/ccDPvXtn.s:24     .text:0000000000000014 .L0 
     /tmp/ccDPvXtn.s:29     .text:0000000000000018 .L0 
     /tmp/ccDPvXtn.s:30     .text:0000000000000018 .L0 
     /tmp/ccDPvXtn.s:38     .text:0000000000000034 .L0 
     /tmp/ccDPvXtn.s:39     .text:0000000000000034 .L0 
     /tmp/ccDPvXtn.s:40     .text:0000000000000034 .L0 
     /tmp/ccDPvXtn.s:42     .text:0000000000000038 .L0 
     /tmp/ccDPvXtn.s:44     .text:000000000000003c .L0 
     /tmp/ccDPvXtn.s:45     .text:000000000000003c .L0 
     /tmp/ccDPvXtn.s:48     .text:0000000000000044 .L0 
     /tmp/ccDPvXtn.s:49     .text:0000000000000044 .L0 
     /tmp/ccDPvXtn.s:52     .text:0000000000000048 .L0 
     /tmp/ccDPvXtn.s:55     .text:000000000000004c .L0 
     /tmp/ccDPvXtn.s:56     .text:000000000000004c .L0 
     /tmp/ccDPvXtn.s:63     .text:0000000000000068 .L0 
     /tmp/ccDPvXtn.s:64     .text:000000000000006c .L0 
     /tmp/ccDPvXtn.s:66     .text:0000000000000070 .L0 
     /tmp/ccDPvXtn.s:67     .text:0000000000000070 .L0 
     /tmp/ccDPvXtn.s:69     .text:0000000000000074 .L0 
     /tmp/ccDPvXtn.s:72     .text:0000000000000078 .L0 
     /tmp/ccDPvXtn.s:74     .text:000000000000007c .L0 
     /tmp/ccDPvXtn.s:80     .text:000000000000007c _Z9getStringPci
     /tmp/ccDPvXtn.s:83     .text:000000000000007c .L0 
     /tmp/ccDPvXtn.s:85     .text:000000000000007c .L0 
     /tmp/ccDPvXtn.s:86     .text:0000000000000080 .L0 
     /tmp/ccDPvXtn.s:93     .text:0000000000000098 .L0 
     /tmp/ccDPvXtn.s:94     .text:0000000000000098 .L0 
     /tmp/ccDPvXtn.s:95     .text:0000000000000098 .L0 
     /tmp/ccDPvXtn.s:96     .text:0000000000000098 .L0 
     /tmp/ccDPvXtn.s:97     .text:0000000000000098 .L0 
     /tmp/ccDPvXtn.s:98     .text:0000000000000098 .L0 
     /tmp/ccDPvXtn.s:100    .text:000000000000009c .L0 
     /tmp/ccDPvXtn.s:106    .text:00000000000000a4 .L0 
     /tmp/ccDPvXtn.s:107    .text:00000000000000a4 .L0 
     /tmp/ccDPvXtn.s:114    .text:00000000000000c0 .L0 
     /tmp/ccDPvXtn.s:118    .text:00000000000000c4 .L0 
     /tmp/ccDPvXtn.s:120    .text:00000000000000c8 .L0 
     /tmp/ccDPvXtn.s:123    .text:00000000000000cc .L0 
     /tmp/ccDPvXtn.s:125    .text:00000000000000d0 .L0 
     /tmp/ccDPvXtn.s:126    .text:00000000000000d0 .L0 
     /tmp/ccDPvXtn.s:129    .text:00000000000000d8 .L0 
     /tmp/ccDPvXtn.s:132    .text:00000000000000dc .L0 
     /tmp/ccDPvXtn.s:133    .text:00000000000000dc .L0 
     /tmp/ccDPvXtn.s:134    .text:00000000000000dc .L0 
     /tmp/ccDPvXtn.s:136    .text:00000000000000e0 .L0 
     /tmp/ccDPvXtn.s:138    .text:00000000000000e4 .L0 
     /tmp/ccDPvXtn.s:141    .text:00000000000000ec .L0 
     /tmp/ccDPvXtn.s:144    .text:00000000000000f4 .L0 
GAS LISTING /tmp/ccDPvXtn.s 			page 12


     /tmp/ccDPvXtn.s:151    .text:0000000000000100 .L0 
     /tmp/ccDPvXtn.s:152    .text:0000000000000100 .L0 
     /tmp/ccDPvXtn.s:155    .text:0000000000000104 .L0 
     /tmp/ccDPvXtn.s:158    .text:0000000000000108 .L0 
     /tmp/ccDPvXtn.s:159    .text:0000000000000108 .L0 
     /tmp/ccDPvXtn.s:166    .text:0000000000000124 .L0 
     /tmp/ccDPvXtn.s:167    .text:0000000000000124 .L0 
     /tmp/ccDPvXtn.s:169    .text:000000000000012c .L0 
     /tmp/ccDPvXtn.s:171    .text:0000000000000130 .L0 
     /tmp/ccDPvXtn.s:172    .text:0000000000000130 .L0 
     /tmp/ccDPvXtn.s:174    .text:0000000000000134 .L0 
     /tmp/ccDPvXtn.s:176    .text:0000000000000138 .L0 
     /tmp/ccDPvXtn.s:178    .text:000000000000013c .L0 
     /tmp/ccDPvXtn.s:181    .text:0000000000000140 .L0 
     /tmp/ccDPvXtn.s:183    .text:0000000000000144 .L0 
     /tmp/ccDPvXtn.s:185    .text:0000000000000148 .L0 
     /tmp/ccDPvXtn.s:191    .text:0000000000000148 _Z11stringToIntPKc
     /tmp/ccDPvXtn.s:194    .text:0000000000000148 .L0 
     /tmp/ccDPvXtn.s:196    .text:0000000000000148 .L0 
     /tmp/ccDPvXtn.s:197    .text:000000000000014c .L0 
     /tmp/ccDPvXtn.s:199    .text:0000000000000150 .L0 
     /tmp/ccDPvXtn.s:201    .text:0000000000000154 .L0 
     /tmp/ccDPvXtn.s:204    .text:0000000000000158 .L0 
     /tmp/ccDPvXtn.s:206    .text:0000000000000158 .L0 
     /tmp/ccDPvXtn.s:207    .text:0000000000000158 .L0 
     /tmp/ccDPvXtn.s:211    .text:000000000000015c .L0 
     /tmp/ccDPvXtn.s:212    .text:000000000000015c .L0 
     /tmp/ccDPvXtn.s:213    .text:000000000000015c .L0 
     /tmp/ccDPvXtn.s:215    .text:0000000000000160 .L0 
     /tmp/ccDPvXtn.s:220    .text:0000000000000170 .L0 
     /tmp/ccDPvXtn.s:221    .text:0000000000000170 .L0 
     /tmp/ccDPvXtn.s:225    .text:000000000000017c .L0 
     /tmp/ccDPvXtn.s:228    .text:0000000000000180 .L0 
     /tmp/ccDPvXtn.s:230    .text:0000000000000184 .L0 
     /tmp/ccDPvXtn.s:233    .text:0000000000000188 .L0 
     /tmp/ccDPvXtn.s:237    .text:000000000000018c .L0 
     /tmp/ccDPvXtn.s:238    .text:000000000000018c .L0 
     /tmp/ccDPvXtn.s:239    .text:0000000000000190 .L0 
     /tmp/ccDPvXtn.s:240    .text:0000000000000190 .L0 
     /tmp/ccDPvXtn.s:242    .text:0000000000000194 .L0 
     /tmp/ccDPvXtn.s:244    .text:0000000000000198 .L0 
     /tmp/ccDPvXtn.s:250    .text:0000000000000198 _Z8printIntiii
     /tmp/ccDPvXtn.s:253    .text:0000000000000198 .L0 
     /tmp/ccDPvXtn.s:255    .text:0000000000000198 .L0 
     /tmp/ccDPvXtn.s:256    .text:000000000000019c .L0 
     /tmp/ccDPvXtn.s:263    .text:00000000000001b4 .L0 
     /tmp/ccDPvXtn.s:264    .text:00000000000001b4 .L0 
     /tmp/ccDPvXtn.s:265    .text:00000000000001b4 .L0 
     /tmp/ccDPvXtn.s:266    .text:00000000000001b4 .L0 
     /tmp/ccDPvXtn.s:267    .text:00000000000001b4 .L0 
     /tmp/ccDPvXtn.s:268    .text:00000000000001b4 .L0 
     /tmp/ccDPvXtn.s:270    .text:00000000000001b8 .L0 
     /tmp/ccDPvXtn.s:277    .text:00000000000001c4 .L0 
     /tmp/ccDPvXtn.s:278    .text:00000000000001c4 .L0 
     /tmp/ccDPvXtn.s:285    .text:00000000000001e0 .L0 
     /tmp/ccDPvXtn.s:286    .text:00000000000001e0 .L0 
     /tmp/ccDPvXtn.s:287    .text:00000000000001e0 .L0 
GAS LISTING /tmp/ccDPvXtn.s 			page 13


     /tmp/ccDPvXtn.s:289    .text:00000000000001e0 .L0 
     /tmp/ccDPvXtn.s:290    .text:00000000000001e0 .L0 
     /tmp/ccDPvXtn.s:292    .text:00000000000001e4 .L0 
     /tmp/ccDPvXtn.s:294    .text:00000000000001e8 .L0 
     /tmp/ccDPvXtn.s:298    .text:00000000000001ec .L0 
     /tmp/ccDPvXtn.s:299    .text:00000000000001ec .L0 
     /tmp/ccDPvXtn.s:303    .text:00000000000001f0 .L0 
     /tmp/ccDPvXtn.s:304    .text:00000000000001f0 .L0 
     /tmp/ccDPvXtn.s:305    .text:00000000000001f0 .L0 
     /tmp/ccDPvXtn.s:308    .text:00000000000001f8 .L0 
     /tmp/ccDPvXtn.s:311    .text:00000000000001fc .L0 
     /tmp/ccDPvXtn.s:315    .text:000000000000020c .L0 
     /tmp/ccDPvXtn.s:319    .text:0000000000000218 .L0 
     /tmp/ccDPvXtn.s:320    .text:0000000000000218 .L0 
     /tmp/ccDPvXtn.s:323    .text:000000000000021c .L0 
     /tmp/ccDPvXtn.s:325    .text:0000000000000220 .L0 
     /tmp/ccDPvXtn.s:328    .text:0000000000000224 .L0 
     /tmp/ccDPvXtn.s:329    .text:0000000000000224 .L0 
     /tmp/ccDPvXtn.s:334    .text:0000000000000234 .L0 
     /tmp/ccDPvXtn.s:338    .text:0000000000000238 .L0 
     /tmp/ccDPvXtn.s:339    .text:0000000000000238 .L0 
     /tmp/ccDPvXtn.s:343    .text:0000000000000240 .L0 
     /tmp/ccDPvXtn.s:344    .text:0000000000000240 .L0 
     /tmp/ccDPvXtn.s:353    .text:0000000000000258 .L0 
     /tmp/ccDPvXtn.s:354    .text:0000000000000258 .L0 
     /tmp/ccDPvXtn.s:355    .text:0000000000000258 .L0 
     /tmp/ccDPvXtn.s:357    .text:000000000000025c .L0 
     /tmp/ccDPvXtn.s:359    .text:0000000000000260 .L0 
     /tmp/ccDPvXtn.s:363    .text:0000000000000264 .L0 
     /tmp/ccDPvXtn.s:364    .text:0000000000000264 .L0 
     /tmp/ccDPvXtn.s:371    .text:0000000000000280 .L0 
     /tmp/ccDPvXtn.s:372    .text:0000000000000284 .L0 
     /tmp/ccDPvXtn.s:374    .text:0000000000000288 .L0 
     /tmp/ccDPvXtn.s:375    .text:0000000000000288 .L0 
     /tmp/ccDPvXtn.s:377    .text:000000000000028c .L0 
     /tmp/ccDPvXtn.s:379    .text:0000000000000290 .L0 
     /tmp/ccDPvXtn.s:381    .text:0000000000000294 .L0 
     /tmp/ccDPvXtn.s:383    .text:0000000000000298 .L0 
     /tmp/ccDPvXtn.s:386    .text:000000000000029c .L0 
     /tmp/ccDPvXtn.s:388    .text:00000000000002a0 .L0 
     /tmp/ccDPvXtn.s:398    .data:0000000000000000 digits
     /tmp/ccDPvXtn.s:405    .bss:0000000000000000 lockPrint
     /tmp/ccDPvXtn.s:395    .data:0000000000000000 .LANCHOR1
     /tmp/ccDPvXtn.s:402    .bss:0000000000000000 .LANCHOR0
     /tmp/ccDPvXtn.s:412    .text:00000000000002a0 .L0 
     /tmp/ccDPvXtn.s:32     .text:0000000000000020 .L0 
     /tmp/ccDPvXtn.s:58     .text:0000000000000054 .L0 
     /tmp/ccDPvXtn.s:109    .text:00000000000000ac .L0 
     /tmp/ccDPvXtn.s:161    .text:0000000000000110 .L0 
     /tmp/ccDPvXtn.s:280    .text:00000000000001cc .L0 
     /tmp/ccDPvXtn.s:311    .text:00000000000001fc .L0 
     /tmp/ccDPvXtn.s:366    .text:000000000000026c .L0 
     /tmp/ccDPvXtn.s:27     .text:0000000000000018 .L2
     /tmp/ccDPvXtn.s:53     .text:000000000000004c .L3
     /tmp/ccDPvXtn.s:36     .text:0000000000000034 .L4
     /tmp/ccDPvXtn.s:104    .text:00000000000000a4 .L7
     /tmp/ccDPvXtn.s:149    .text:0000000000000100 .L8
GAS LISTING /tmp/ccDPvXtn.s 			page 14


     /tmp/ccDPvXtn.s:146    .text:00000000000000fc .L11
     /tmp/ccDPvXtn.s:115    .text:00000000000000c4 .L9
     /tmp/ccDPvXtn.s:156    .text:0000000000000108 .L10
     /tmp/ccDPvXtn.s:235    .text:000000000000018c .L14
     /tmp/ccDPvXtn.s:209    .text:000000000000015c .L15
     /tmp/ccDPvXtn.s:275    .text:00000000000001c4 .L18
     /tmp/ccDPvXtn.s:296    .text:00000000000001ec .L19
     /tmp/ccDPvXtn.s:351    .text:0000000000000258 .L26
     /tmp/ccDPvXtn.s:301    .text:00000000000001f0 .L20
     /tmp/ccDPvXtn.s:336    .text:0000000000000238 .L23
     /tmp/ccDPvXtn.s:361    .text:0000000000000264 .L22
     /tmp/ccDPvXtn.s:911    .debug_abbrev:0000000000000000 .Ldebug_abbrev0
     /tmp/ccDPvXtn.s:1535   .debug_str:00000000000001a6 .LASF34
     /tmp/ccDPvXtn.s:1531   .debug_str:000000000000018d .LASF35
     /tmp/ccDPvXtn.s:1513   .debug_str:00000000000000e9 .LASF36
     /tmp/ccDPvXtn.s:5      .text:0000000000000000 .Ltext0
     /tmp/ccDPvXtn.s:408    .text:00000000000002a0 .Letext0
     /tmp/ccDPvXtn.s:1471   .debug_line:0000000000000000 .Ldebug_line0
     /tmp/ccDPvXtn.s:1509   .debug_str:00000000000000ce .LASF0
     /tmp/ccDPvXtn.s:1517   .debug_str:000000000000011c .LASF1
     /tmp/ccDPvXtn.s:1505   .debug_str:00000000000000ad .LASF2
     /tmp/ccDPvXtn.s:1497   .debug_str:0000000000000089 .LASF4
     /tmp/ccDPvXtn.s:1529   .debug_str:000000000000017b .LASF3
     /tmp/ccDPvXtn.s:1475   .debug_str:0000000000000010 .LASF5
     /tmp/ccDPvXtn.s:1521   .debug_str:000000000000013e .LASF6
     /tmp/ccDPvXtn.s:1507   .debug_str:00000000000000bb .LASF7
     /tmp/ccDPvXtn.s:1539   .debug_str:0000000000000279 .LASF8
     /tmp/ccDPvXtn.s:1491   .debug_str:0000000000000068 .LASF9
     /tmp/ccDPvXtn.s:1525   .debug_str:0000000000000156 .LASF10
     /tmp/ccDPvXtn.s:1537   .debug_str:000000000000026a .LASF11
     /tmp/ccDPvXtn.s:1477   .debug_str:0000000000000017 .LASF12
     /tmp/ccDPvXtn.s:1473   .debug_str:0000000000000000 .LASF13
     /tmp/ccDPvXtn.s:1481   .debug_str:000000000000002e .LASF14
     /tmp/ccDPvXtn.s:1527   .debug_str:0000000000000165 .LASF15
     /tmp/ccDPvXtn.s:1483   .debug_str:000000000000003a .LASF16
     /tmp/ccDPvXtn.s:1487   .debug_str:000000000000005a .LASF17
     /tmp/ccDPvXtn.s:1499   .debug_str:0000000000000090 .LASF18
     /tmp/ccDPvXtn.s:1523   .debug_str:0000000000000151 .LASF19
     /tmp/ccDPvXtn.s:1503   .debug_str:00000000000000a6 .LASF20
     /tmp/ccDPvXtn.s:1489   .debug_str:000000000000005f .LASF26
     /tmp/ccDPvXtn.s:1519   .debug_str:000000000000012f .LASF28
     /tmp/ccDPvXtn.s:251    .text:0000000000000198 .LFB40
     /tmp/ccDPvXtn.s:389    .text:00000000000002a0 .LFE40
     /tmp/ccDPvXtn.s:1263   .debug_loc:0000000000000000 .LLST8
     /tmp/ccDPvXtn.s:1541   .debug_str:0000000000000289 .LASF21
     /tmp/ccDPvXtn.s:1277   .debug_loc:0000000000000039 .LLST9
     /tmp/ccDPvXtn.s:1291   .debug_loc:0000000000000072 .LLST10
     /tmp/ccDPvXtn.s:1305   .debug_loc:00000000000000ab .LLST11
     /tmp/ccDPvXtn.s:1327   .debug_loc:000000000000010a .LLST12
     /tmp/ccDPvXtn.s:1348   .debug_loc:0000000000000168 .LLST13
     /tmp/ccDPvXtn.s:282    .text:00000000000001dc .LVL26
     /tmp/ccDPvXtn.s:348    .text:0000000000000254 .LVL35
     /tmp/ccDPvXtn.s:368    .text:000000000000027c .LVL38
     /tmp/ccDPvXtn.s:1495   .debug_str:000000000000007d .LASF22
     /tmp/ccDPvXtn.s:1515   .debug_str:0000000000000109 .LASF24
     /tmp/ccDPvXtn.s:192    .text:0000000000000148 .LFB39
     /tmp/ccDPvXtn.s:245    .text:0000000000000198 .LFE39
GAS LISTING /tmp/ccDPvXtn.s 			page 15


     /tmp/ccDPvXtn.s:1355   .debug_loc:000000000000018b .LLST6
     /tmp/ccDPvXtn.s:1366   .debug_loc:00000000000001c1 .LLST7
     /tmp/ccDPvXtn.s:1485   .debug_str:0000000000000050 .LASF23
     /tmp/ccDPvXtn.s:1545   .debug_str:00000000000002a1 .LASF25
     /tmp/ccDPvXtn.s:81     .text:000000000000007c .LFB38
     /tmp/ccDPvXtn.s:186    .text:0000000000000148 .LFE38
     /tmp/ccDPvXtn.s:1388   .debug_loc:0000000000000220 .LLST1
     /tmp/ccDPvXtn.s:1403   .debug_loc:0000000000000269 .LLST2
     /tmp/ccDPvXtn.s:1417   .debug_loc:00000000000002a2 .LLST3
     /tmp/ccDPvXtn.s:1428   .debug_loc:00000000000002d8 .LLST4
     /tmp/ccDPvXtn.s:1440   .debug_loc:0000000000000300 .LLST5
     /tmp/ccDPvXtn.s:111    .text:00000000000000bc .LVL9
     /tmp/ccDPvXtn.s:127    .text:00000000000000d8 .LVL12
     /tmp/ccDPvXtn.s:163    .text:0000000000000120 .LVL16
     /tmp/ccDPvXtn.s:1501   .debug_str:000000000000009a .LASF27
     /tmp/ccDPvXtn.s:1543   .debug_str:000000000000028e .LASF29
     /tmp/ccDPvXtn.s:10     .text:0000000000000000 .LFB37
     /tmp/ccDPvXtn.s:75     .text:000000000000007c .LFE37
     /tmp/ccDPvXtn.s:1479   .debug_str:0000000000000027 .LASF30
     /tmp/ccDPvXtn.s:1447   .debug_loc:0000000000000323 .LLST0
     /tmp/ccDPvXtn.s:34     .text:0000000000000030 .LVL2
     /tmp/ccDPvXtn.s:46     .text:0000000000000044 .LVL3
     /tmp/ccDPvXtn.s:60     .text:0000000000000064 .LVL5
     /tmp/ccDPvXtn.s:1511   .debug_str:00000000000000db .LASF31
     /tmp/ccDPvXtn.s:1533   .debug_str:000000000000019f .LASF32
     /tmp/ccDPvXtn.s:1493   .debug_str:0000000000000076 .LASF33
     /tmp/ccDPvXtn.s:254    .text:0000000000000198 .LVL24
     /tmp/ccDPvXtn.s:274    .text:00000000000001c4 .LVL25
     /tmp/ccDPvXtn.s:295    .text:00000000000001ec .LVL28
     /tmp/ccDPvXtn.s:300    .text:00000000000001f0 .LVL29
     /tmp/ccDPvXtn.s:309    .text:00000000000001fc .LVL30
     /tmp/ccDPvXtn.s:327    .text:0000000000000224 .LVL32
     /tmp/ccDPvXtn.s:335    .text:0000000000000238 .LVL33
     /tmp/ccDPvXtn.s:340    .text:000000000000023c .LVL34
     /tmp/ccDPvXtn.s:288    .text:00000000000001e0 .LVL27
     /tmp/ccDPvXtn.s:350    .text:0000000000000258 .LVL36
     /tmp/ccDPvXtn.s:360    .text:0000000000000264 .LVL37
     /tmp/ccDPvXtn.s:384    .text:0000000000000298 .LVL39
     /tmp/ccDPvXtn.s:321    .text:000000000000021c .LVL31
     /tmp/ccDPvXtn.s:195    .text:0000000000000148 .LVL18
     /tmp/ccDPvXtn.s:208    .text:000000000000015c .LVL20
     /tmp/ccDPvXtn.s:205    .text:0000000000000158 .LVL19
     /tmp/ccDPvXtn.s:231    .text:0000000000000188 .LVL22
     /tmp/ccDPvXtn.s:234    .text:000000000000018c .LVL23
     /tmp/ccDPvXtn.s:84     .text:000000000000007c .LVL7
     /tmp/ccDPvXtn.s:103    .text:00000000000000a4 .LVL8
     /tmp/ccDPvXtn.s:179    .text:000000000000013c .LVL17
     /tmp/ccDPvXtn.s:116    .text:00000000000000c4 .LVL10
     /tmp/ccDPvXtn.s:121    .text:00000000000000cc .LVL11
     /tmp/ccDPvXtn.s:148    .text:0000000000000100 .LVL14
     /tmp/ccDPvXtn.s:153    .text:0000000000000104 .LVL15
     /tmp/ccDPvXtn.s:131    .text:00000000000000dc .LVL13
     /tmp/ccDPvXtn.s:14     .text:0000000000000000 .LVL0
     /tmp/ccDPvXtn.s:26     .text:0000000000000018 .LVL1
     /tmp/ccDPvXtn.s:70     .text:0000000000000074 .LVL6
     /tmp/ccDPvXtn.s:413    .debug_info:0000000000000000 .Ldebug_info0

GAS LISTING /tmp/ccDPvXtn.s 			page 16


UNDEFINED SYMBOLS
copy_and_swap
__putc
__getc
